     VMA      LMA     Size Align Out     In      Symbol
       0        0        0     1 PAGE_SIZE = 512
       0        0        0     1 STACK_MIN_SIZE = DEFINED ( stack_min_size ) ? stack_min_size : 1500
       0        0        0     1 END_STACK = ORIGIN ( SRAM ) + LENGTH ( SRAM )
c0de0000 c0de0000     b70b     4 .text
c0de0000 c0de0000        0     1         _text = .
c0de0000 c0de0000        0     1         _nvram_start = .
c0de0000 c0de0000       16     2         build/flex/obj/sdk/lib_standard_app/main.o:(.boot)
c0de0000 c0de0000        0     1                 $t.3
c0de0001 c0de0001       16     1                 main
c0de0016 c0de0016        0     1         _code = .
c0de0016 c0de0016       ee     2         build/flex/obj/app/src/apdu/dispatcher.o:(.text.apdu_dispatcher)
c0de0016 c0de0016        0     1                 $t.0
c0de0017 c0de0017       ee     1                 apdu_dispatcher
c0de0104 c0de0104       c8     4         build/flex/obj/app/src/app_main.o:(.text.app_main)
c0de0104 c0de0104        0     1                 $t.0
c0de0105 c0de0105       c8     1                 app_main
c0de01cc c0de01cc      4a0     2         build/flex/obj/app/src/handler/encrypt_decrypt.o:(.text.handler_encrypt_decrypt)
c0de01cc c0de01cc        0     1                 $t.0
c0de01cd c0de01cd      4a0     1                 handler_encrypt_decrypt
c0de066c c0de066c      2c8     4         build/flex/obj/app/src/handler/encrypt_decrypt.o:(.text.validate_metadata_tlvs)
c0de066c c0de066c        0     1                 $t.1
c0de066d c0de066d      2c8     1                 validate_metadata_tlvs
c0de0934 c0de0934       d0     2         build/flex/obj/app/src/handler/encrypt_decrypt.o:(.text.derive_aes_key)
c0de0934 c0de0934        0     1                 $t.2
c0de0935 c0de0935       d0     1                 derive_aes_key
c0de0a04 c0de0a04       78     2         build/flex/obj/app/src/handler/encrypt_decrypt.o:(.text.start_gcm_session)
c0de0a04 c0de0a04        0     1                 $t.3
c0de0a05 c0de0a05       78     1                 start_gcm_session
c0de0a7c c0de0a7c       2c     2         build/flex/obj/app/src/handler/get_app_name.o:(.text.handler_get_app_name)
c0de0a7c c0de0a7c        0     1                 $t.0
c0de0a7d c0de0a7d       2c     1                 handler_get_app_name
c0de0aa8 c0de0aa8       32     2         build/flex/obj/app/src/handler/get_version.o:(.text.handler_get_version)
c0de0aa8 c0de0aa8        0     1                 $t.0
c0de0aa9 c0de0aa9       32     1                 handler_get_version
c0de0ada c0de0ada       4e     2         build/flex/obj/app/src/ui/menu_nbgl.o:(.text.ui_menu_main)
c0de0ada c0de0ada        0     1                 $t.0
c0de0adb c0de0adb       4e     1                 ui_menu_main
c0de0b28 c0de0b28        6     2         build/flex/obj/app/src/ui/menu_nbgl.o:(.text.app_quit)
c0de0b28 c0de0b28        0     1                 $t.1
c0de0b29 c0de0b29        6     1                 app_quit
c0de0b2e c0de0b2e      14a     2         build/flex/obj/sdk/io/src/os_io_default_apdu.o:(.text.os_io_handle_default_apdu)
c0de0b2e c0de0b2e        0     1                 $t.0
c0de0b2f c0de0b2f      14a     1                 os_io_handle_default_apdu
c0de0c78 c0de0c78       70     2         build/flex/obj/sdk/io/src/os_io_default_apdu.o:(.text.get_version)
c0de0c78 c0de0c78        0     1                 $t.1
c0de0c79 c0de0c79       70     1                 get_version
c0de0ce8 c0de0ce8       40     2         build/flex/obj/sdk/io/src/os_io_seph_cmd.o:(.text.os_io_seph_cmd_printf)
c0de0ce8 c0de0ce8        0     1                 $t.11
c0de0ce9 c0de0ce9       40     1                 os_io_seph_cmd_printf
c0de0d28 c0de0d28       5c     2         build/flex/obj/sdk/io/src/os_io_seph_cmd.o:(.text.os_io_seph_cmd_piezo_play_tune)
c0de0d28 c0de0d28        0     1                 $t.13
c0de0d29 c0de0d29       5c     1                 os_io_seph_cmd_piezo_play_tune
c0de0d84 c0de0d84       aa     2         build/flex/obj/sdk/io/src/os_io_seph_ux.o:(.text.io_process_itc_ux_event)
c0de0d84 c0de0d84        0     1                 $t.1
c0de0d85 c0de0d85       aa     1                 io_process_itc_ux_event
c0de0e2e c0de0e2e       ac     2         build/flex/obj/sdk/io_legacy/src/os_io_legacy.o:(.text.io_seproxyhal_io_heartbeat)
c0de0e2e c0de0e2e        0     1                 $t.3
c0de0e2f c0de0e2f       ac     1                 io_seproxyhal_io_heartbeat
c0de0eda c0de0eda       3c     2         build/flex/obj/sdk/io_legacy/src/os_io_legacy.o:(.text.io_legacy_apdu_tx)
c0de0eda c0de0eda        0     1                 $t.9
c0de0edb c0de0edb       3c     1                 io_legacy_apdu_tx
c0de0f16 c0de0f16      292     2         build/flex/obj/sdk/io_legacy/src/os_io_legacy.o:(.text.io_legacy_apdu_rx)
c0de0f16 c0de0f16        0     1                 $t.10
c0de0f17 c0de0f17      292     1                 io_legacy_apdu_rx
c0de11a8 c0de11a8       4a     2         build/flex/obj/sdk/io_legacy/src/os_io_legacy.o:(.text.io_seproxyhal_init)
c0de11a8 c0de11a8        0     1                 $t.11
c0de11a9 c0de11a9       4a     1                 io_seproxyhal_init
c0de11f2 c0de11f2       4c     2         build/flex/obj/sdk/lib_nbgl/src/nbgl_layout.o:(.text.layoutAddCallbackObj)
c0de11f2 c0de11f2        0     1                 $t.0
c0de11f3 c0de11f3       4c     1                 layoutAddCallbackObj
c0de1240 c0de1240      1ea     4         build/flex/obj/sdk/lib_nbgl/src/nbgl_layout.o:(.text.nbgl_layoutGet)
c0de1240 c0de1240        0     1                 $t.3
c0de1241 c0de1241      1ea     1                 nbgl_layoutGet
c0de142c c0de142c      470     4         build/flex/obj/sdk/lib_nbgl/src/nbgl_layout.o:(.text.touchCallback)
c0de142c c0de142c        0     1                 $t.4
c0de142d c0de142d      470     1                 touchCallback
c0de189c c0de189c      85e     2         build/flex/obj/sdk/lib_nbgl/src/nbgl_layout.o:(.text.nbgl_layoutAddUpFooter)
c0de189c c0de189c        0     1                 $t.5
c0de189d c0de189d      85e     1                 nbgl_layoutAddUpFooter
c0de20fa c0de20fa       d0     2         build/flex/obj/sdk/lib_nbgl/src/nbgl_layout.o:(.text.nbgl_layoutAddSwipe)
c0de20fa c0de20fa        0     1                 $t.6
c0de20fb c0de20fb       d0     1                 nbgl_layoutAddSwipe
c0de21ca c0de21ca       c4     2         build/flex/obj/sdk/lib_nbgl/src/nbgl_layout.o:(.text.nbgl_layoutAddTopRightButton)
c0de21ca c0de21ca        0     1                 $t.8
c0de21cb c0de21cb       c4     1                 nbgl_layoutAddTopRightButton
c0de228e c0de228e      ab4     2         build/flex/obj/sdk/lib_nbgl/src/nbgl_layout.o:(.text.nbgl_layoutAddExtendedFooter)
c0de228e c0de228e        0     1                 $t.10
c0de228f c0de228f      ab4     1                 nbgl_layoutAddExtendedFooter
c0de2d42 c0de2d42       3e     2         build/flex/obj/sdk/lib_nbgl/src/nbgl_layout.o:(.text.nbgl_layoutAddBottomButton)
c0de2d42 c0de2d42        0     1                 $t.11
c0de2d43 c0de2d43       3e     1                 nbgl_layoutAddBottomButton
c0de2d80 c0de2d80       64     2         build/flex/obj/sdk/lib_nbgl/src/nbgl_layout.o:(.text.nbgl_layoutAddTouchableBar)
c0de2d80 c0de2d80        0     1                 $t.12
c0de2d81 c0de2d81       64     1                 nbgl_layoutAddTouchableBar
c0de2de4 c0de2de4      542     2         build/flex/obj/sdk/lib_nbgl/src/nbgl_layout.o:(.text.addListItem)
c0de2de4 c0de2de4        0     1                 $t.13
c0de2de5 c0de2de5      542     1                 addListItem
c0de3326 c0de3326       5e     2         build/flex/obj/sdk/lib_nbgl/src/nbgl_layout.o:(.text.nbgl_layoutAddSwitch)
c0de3326 c0de3326        0     1                 $t.14
c0de3327 c0de3327       5e     1                 nbgl_layoutAddSwitch
c0de3384 c0de3384       48     2         build/flex/obj/sdk/lib_nbgl/src/nbgl_layout.o:(.text.nbgl_layoutAddText)
c0de3384 c0de3384        0     1                 $t.15
c0de3385 c0de3385       48     1                 nbgl_layoutAddText
c0de33cc c0de33cc       62     2         build/flex/obj/sdk/lib_nbgl/src/nbgl_layout.o:(.text.nbgl_layoutAddTextWithAlias)
c0de33cc c0de33cc        0     1                 $t.16
c0de33cd c0de33cd       62     1                 nbgl_layoutAddTextWithAlias
c0de3430 c0de3430      22a     4         build/flex/obj/sdk/lib_nbgl/src/nbgl_layout.o:(.text.nbgl_layoutAddTextContent)
c0de3430 c0de3430        0     1                 $t.18
c0de3431 c0de3431      22a     1                 nbgl_layoutAddTextContent
c0de365c c0de365c      296     4         build/flex/obj/sdk/lib_nbgl/src/nbgl_layout.o:(.text.nbgl_layoutAddRadioChoice)
c0de365c c0de365c        0     1                 $t.19
c0de365d c0de365d      296     1                 nbgl_layoutAddRadioChoice
c0de38f2 c0de38f2       8c     2         build/flex/obj/sdk/lib_nbgl/src/nbgl_layout.o:(.text.nbgl_layoutAddCenteredInfo)
c0de38f2 c0de38f2        0     1                 $t.20
c0de38f3 c0de38f3       8c     1                 nbgl_layoutAddCenteredInfo
c0de397e c0de397e      612     2         build/flex/obj/sdk/lib_nbgl/src/nbgl_layout.o:(.text.addContentCenter)
c0de397e c0de397e        0     1                 $t.21
c0de397f c0de397f      612     1                 addContentCenter
c0de3f90 c0de3f90       1a     2         build/flex/obj/sdk/lib_nbgl/src/nbgl_layout.o:(.text.nbgl_layoutAddContentCenter)
c0de3f90 c0de3f90        0     1                 $t.22
c0de3f91 c0de3f91       1a     1                 nbgl_layoutAddContentCenter
c0de3faa c0de3faa      332     2         build/flex/obj/sdk/lib_nbgl/src/nbgl_layout.o:(.text.nbgl_layoutAddQRCode)
c0de3faa c0de3faa        0     1                 $t.24
c0de3fab c0de3fab      332     1                 nbgl_layoutAddQRCode
c0de42dc c0de42dc       2e     2         build/flex/obj/sdk/lib_nbgl/src/nbgl_layout.o:(.text.nbgl_layoutAddChoiceButtons)
c0de42dc c0de42dc        0     1                 $t.25
c0de42dd c0de42dd       2e     1                 nbgl_layoutAddChoiceButtons
c0de430a c0de430a       28     2         build/flex/obj/sdk/lib_nbgl/src/nbgl_layout.o:(.text.nbgl_layoutAddHorizontalButtons)
c0de430a c0de430a        0     1                 $t.26
c0de430b c0de430b       28     1                 nbgl_layoutAddHorizontalButtons
c0de4334 c0de4334      4ea     4         build/flex/obj/sdk/lib_nbgl/src/nbgl_layout.o:(.text.nbgl_layoutAddTagValueList)
c0de4334 c0de4334        0     1                 $t.27
c0de4335 c0de4335      4ea     1                 nbgl_layoutAddTagValueList
c0de481e c0de481e       6c     2         build/flex/obj/sdk/lib_nbgl/src/nbgl_layout.o:(.text.nbgl_layoutAddSeparationLine)
c0de481e c0de481e        0     1                 $t.29
c0de481f c0de481f       6c     1                 nbgl_layoutAddSeparationLine
c0de488a c0de488a      23c     2         build/flex/obj/sdk/lib_nbgl/src/nbgl_layout.o:(.text.nbgl_layoutAddButton)
c0de488a c0de488a        0     1                 $t.30
c0de488b c0de488b      23c     1                 nbgl_layoutAddButton
c0de4ac6 c0de4ac6       2a     2         build/flex/obj/sdk/lib_nbgl/src/nbgl_layout.o:(.text.nbgl_layoutAddLongPressButton)
c0de4ac6 c0de4ac6        0     1                 $t.31
c0de4ac7 c0de4ac7       2a     1                 nbgl_layoutAddLongPressButton
c0de4af0 c0de4af0       26     2         build/flex/obj/sdk/lib_nbgl/src/nbgl_layout.o:(.text.nbgl_layoutAddFooter)
c0de4af0 c0de4af0        0     1                 $t.32
c0de4af1 c0de4af1       26     1                 nbgl_layoutAddFooter
c0de4b16 c0de4b16       2a     2         build/flex/obj/sdk/lib_nbgl/src/nbgl_layout.o:(.text.nbgl_layoutAddSplitFooter)
c0de4b16 c0de4b16        0     1                 $t.33
c0de4b17 c0de4b17       2a     1                 nbgl_layoutAddSplitFooter
c0de4b40 c0de4b40      856     2         build/flex/obj/sdk/lib_nbgl/src/nbgl_layout.o:(.text.nbgl_layoutAddHeader)
c0de4b40 c0de4b40        0     1                 $t.34
c0de4b41 c0de4b41      856     1                 nbgl_layoutAddHeader
c0de5396 c0de5396       36     2         build/flex/obj/sdk/lib_nbgl/src/nbgl_layout.o:(.text.nbgl_layoutAddProgressIndicator)
c0de5396 c0de5396        0     1                 $t.35
c0de5397 c0de5397       36     1                 nbgl_layoutAddProgressIndicator
c0de53cc c0de53cc       48     2         build/flex/obj/sdk/lib_nbgl/src/nbgl_layout.o:(.text.nbgl_layoutDraw)
c0de53cc c0de53cc        0     1                 $t.39
c0de53cd c0de53cd       48     1                 nbgl_layoutDraw
c0de5414 c0de5414       60     2         build/flex/obj/sdk/lib_nbgl/src/nbgl_layout.o:(.text.nbgl_layoutRelease)
c0de5414 c0de5414        0     1                 $t.40
c0de5415 c0de5415       60     1                 nbgl_layoutRelease
c0de5474 c0de5474      10e     4         build/flex/obj/sdk/lib_nbgl/src/nbgl_layout.o:(.text.animTickerCallback)
c0de5474 c0de5474        0     1                 $t.41
c0de5475 c0de5475      10e     1                 animTickerCallback
c0de5582 c0de5582      1b6     2         build/flex/obj/sdk/lib_nbgl/src/nbgl_layout_navigation.o:(.text.layoutNavigationCallback)
c0de5582 c0de5582        0     1                 $t.0
c0de5583 c0de5583      1b6     1                 layoutNavigationCallback
c0de5738 c0de5738      29a     2         build/flex/obj/sdk/lib_nbgl/src/nbgl_layout_navigation.o:(.text.layoutNavigationPopulate)
c0de5738 c0de5738        0     1                 $t.1
c0de5739 c0de5739      29a     1                 layoutNavigationPopulate
c0de59d2 c0de59d2      232     2         build/flex/obj/sdk/lib_nbgl/src/nbgl_page.o:(.text.nbgl_pageDrawInfo)
c0de59d2 c0de59d2        0     1                 $t.2
c0de59d3 c0de59d3      232     1                 nbgl_pageDrawInfo
c0de5c04 c0de5c04       8c     2         build/flex/obj/sdk/lib_nbgl/src/nbgl_page.o:(.text.nbgl_pageDrawConfirmation)
c0de5c04 c0de5c04        0     1                 $t.3
c0de5c05 c0de5c05       8c     1                 nbgl_pageDrawConfirmation
c0de5c90 c0de5c90      53c     4         build/flex/obj/sdk/lib_nbgl/src/nbgl_page.o:(.text.nbgl_pageDrawGenericContentExt)
c0de5c90 c0de5c90        0     1                 $t.4
c0de5c91 c0de5c91      53c     1                 nbgl_pageDrawGenericContentExt
c0de61cc c0de61cc        a     2         build/flex/obj/sdk/lib_nbgl/src/nbgl_page.o:(.text.nbgl_pageDrawGenericContent)
c0de61cc c0de61cc        0     1                 $t.5
c0de61cd c0de61cd        a     1                 nbgl_pageDrawGenericContent
c0de61d6 c0de61d6        8     2         build/flex/obj/sdk/lib_nbgl/src/nbgl_page.o:(.text.nbgl_pageRelease)
c0de61d6 c0de61d6        0     1                 $t.6
c0de61d7 c0de61d7        8     1                 nbgl_pageRelease
c0de61e0 c0de61e0      144     4         build/flex/obj/sdk/lib_nbgl/src/nbgl_use_case.o:(.text.getNbTagValuesInPage)
c0de61e0 c0de61e0        0     1                 $t.1
c0de61e1 c0de61e1      144     1                 getNbTagValuesInPage
c0de6324 c0de6324       b4     4         build/flex/obj/sdk/lib_nbgl/src/nbgl_use_case.o:(.text.nbgl_useCaseGetNbSwitchesInPage)
c0de6324 c0de6324        0     1                 $t.4
c0de6325 c0de6325       b4     1                 nbgl_useCaseGetNbSwitchesInPage
c0de63d8 c0de63d8      1ce     2         build/flex/obj/sdk/lib_nbgl/src/nbgl_use_case.o:(.text.useCaseHomeExt)
c0de63d8 c0de63d8        0     1                 $t.9
c0de63d9 c0de63d9      1ce     1                 useCaseHomeExt
c0de65a6 c0de65a6       7e     2         build/flex/obj/sdk/lib_nbgl/src/nbgl_use_case.o:(.text.displaySettingsPage)
c0de65a6 c0de65a6        0     1                 $t.12
c0de65a7 c0de65a7       7e     1                 displaySettingsPage
c0de6624 c0de6624      1d2     4         build/flex/obj/sdk/lib_nbgl/src/nbgl_use_case.o:(.text.nbgl_useCaseGenericSettings)
c0de6624 c0de6624        0     1                 $t.14
c0de6625 c0de6625      1d2     1                 nbgl_useCaseGenericSettings
c0de67f8 c0de67f8      290     4         build/flex/obj/sdk/lib_nbgl/src/nbgl_use_case.o:(.text.getNbPagesForContent)
c0de67f8 c0de67f8        0     1                 $t.15
c0de67f9 c0de67f9      290     1                 getNbPagesForContent
c0de6a88 c0de6a88      4c4     4         build/flex/obj/sdk/lib_nbgl/src/nbgl_use_case.o:(.text.displayGenericContextPage)
c0de6a88 c0de6a88        0     1                 $t.16
c0de6a89 c0de6a89      4c4     1                 displayGenericContextPage
c0de6f4c c0de6f4c      120     2         build/flex/obj/sdk/lib_nbgl/src/nbgl_use_case.o:(.text.nbgl_useCaseHomeAndSettings)
c0de6f4c c0de6f4c        0     1                 $t.18
c0de6f4d c0de6f4d      120     1                 nbgl_useCaseHomeAndSettings
c0de706c c0de706c       3e     2         build/flex/obj/sdk/lib_nbgl/src/nbgl_use_case.o:(.text.bundleNavStartHome)
c0de706c c0de706c        0     1                 $t.19
c0de706d c0de706d       3e     1                 bundleNavStartHome
c0de70aa c0de70aa      4f4     2         build/flex/obj/sdk/lib_nbgl/src/nbgl_use_case.o:(.text.pageCallback)
c0de70aa c0de70aa        0     1                 $t.22
c0de70ab c0de70ab      4f4     1                 pageCallback
c0de759e c0de759e       de     2         build/flex/obj/sdk/lib_nbgl/src/nbgl_use_case.o:(.text.nbgl_useCaseChoice)
c0de759e c0de759e        0     1                 $t.24
c0de759f c0de759f       de     1                 nbgl_useCaseChoice
c0de767c c0de767c      102     2         build/flex/obj/sdk/lib_nbgl/src/nbgl_use_case.o:(.text.pageModalCallback)
c0de767c c0de767c        0     1                 $t.28
c0de767d c0de767d      102     1                 pageModalCallback
c0de777e c0de777e       d2     2         build/flex/obj/sdk/lib_nbgl/src/nbgl_use_case.o:(.text.displayReviewPage)
c0de777e c0de777e        0     1                 $t.32
c0de777f c0de777f       d2     1                 displayReviewPage
c0de7850 c0de7850      1c2     2         build/flex/obj/sdk/lib_nbgl/src/nbgl_use_case.o:(.text.genericContextComputeNextPageParams)
c0de7850 c0de7850        0     1                 $t.55
c0de7851 c0de7851      1c2     1                 genericContextComputeNextPageParams
c0de7a12 c0de7a12       2e     2         build/flex/obj/sdk/lib_nbgl/src/nbgl_use_case.o:(.text.bundleNavStartSettings)
c0de7a12 c0de7a12        0     1                 $t.56
c0de7a13 c0de7a13       2e     1                 bundleNavStartSettings
c0de7a40 c0de7a40      2c0     4         build/flex/obj/sdk/lib_nbgl/src/nbgl_use_case.o:(.text.displayFullValuePage)
c0de7a40 c0de7a40        0     1                 $t.57
c0de7a41 c0de7a41      2c0     1                 displayFullValuePage
c0de7d00 c0de7d00      288     2         build/flex/obj/sdk/lib_nbgl/src/nbgl_use_case.o:(.text.displaySecurityReport)
c0de7d00 c0de7d00        0     1                 $t.58
c0de7d01 c0de7d01      288     1                 displaySecurityReport
c0de7f88 c0de7f88      180     2         build/flex/obj/sdk/lib_nbgl/src/nbgl_use_case.o:(.text.modalLayoutTouchCallback)
c0de7f88 c0de7f88        0     1                 $t.59
c0de7f89 c0de7f89      180     1                 modalLayoutTouchCallback
c0de8108 c0de8108      112     4         build/flex/obj/sdk/lib_nbgl/src/nbgl_use_case.o:(.text.displayModalDetails)
c0de8108 c0de8108        0     1                 $t.60
c0de8109 c0de8109      112     1                 displayModalDetails
c0de821c c0de821c      1e8     4         build/flex/obj/sdk/lib_nbgl/src/nbgl_use_case.o:(.text.displayDetailsPage)
c0de821c c0de821c        0     1                 $t.61
c0de821d c0de821d      1e8     1                 displayDetailsPage
c0de8404 c0de8404      132     2         build/flex/obj/sdk/lib_nbgl/src/nbgl_use_case.o:(.text.displayTagValueListModalPage)
c0de8404 c0de8404        0     1                 $t.62
c0de8405 c0de8405      132     1                 displayTagValueListModalPage
c0de8536 c0de8536       26     2         build/flex/obj/sdk/lib_standard_app/buffer.o:(.text.buffer_copy)
c0de8536 c0de8536        0     1                 $t.11
c0de8537 c0de8537       26     1                 buffer_copy
c0de855c c0de855c        2     2         build/flex/obj/sdk/lib_standard_app/io.o:(.text.app_ticker_event_callback)
c0de855c c0de855c        0     1                 $t.0
c0de855d c0de855d        2     1                 app_ticker_event_callback
c0de855e c0de855e       38     2         build/flex/obj/sdk/lib_standard_app/io.o:(.text.io_event)
c0de855e c0de855e        0     1                 $t.1
c0de855f c0de855f       38     1                 io_event
c0de8596 c0de8596       10     2         build/flex/obj/sdk/lib_standard_app/io.o:(.text.io_init)
c0de8596 c0de8596        0     1                 $t.2
c0de8597 c0de8597       10     1                 io_init
c0de85a8 c0de85a8       28     4         build/flex/obj/sdk/lib_standard_app/io.o:(.text.io_recv_command)
c0de85a8 c0de85a8        0     1                 $t.3
c0de85a9 c0de85a9       28     1                 io_recv_command
c0de85d0 c0de85d0       fc     4         build/flex/obj/sdk/lib_standard_app/io.o:(.text.io_send_response_buffers)
c0de85d0 c0de85d0        0     1                 $t.4
c0de85d1 c0de85d1       fc     1                 io_send_response_buffers
c0de86cc c0de86cc        6     2         build/flex/obj/sdk/lib_standard_app/main.o:(.text.app_exit)
c0de86cc c0de86cc        0     1                 $t.0
c0de86cd c0de86cd        6     1                 app_exit
c0de86d2 c0de86d2        c     2         build/flex/obj/sdk/lib_standard_app/main.o:(.text.common_app_init)
c0de86d2 c0de86d2        0     1                 $t.1
c0de86d3 c0de86d3        c     1                 common_app_init
c0de86de c0de86de       62     2         build/flex/obj/sdk/lib_standard_app/main.o:(.text.standalone_app_main)
c0de86de c0de86de        0     1                 $t.2
c0de86df c0de86df       62     1                 standalone_app_main
c0de8740 c0de8740       38     2         build/flex/obj/sdk/lib_standard_app/parser.o:(.text.apdu_parser)
c0de8740 c0de8740        0     1                 $t.0
c0de8741 c0de8741       38     1                 apdu_parser
c0de8778 c0de8778        e     2         build/flex/obj/sdk/lib_standard_app/write.o:(.text.write_u16_be)
c0de8778 c0de8778        0     1                 $t.0
c0de8779 c0de8779        e     1                 write_u16_be
c0de8786 c0de8786       a4     2         build/flex/obj/sdk/lib_ux_nbgl/ux.o:(.text.ux_process_finger_event)
c0de8786 c0de8786        0     1                 $t.0
c0de8787 c0de8787       a4     1                 ux_process_finger_event
c0de882a c0de882a       bc     2         build/flex/obj/sdk/lib_ux_nbgl/ux.o:(.text.ux_process_ticker_event)
c0de882a c0de882a        0     1                 $t.1
c0de882b c0de882b       bc     1                 ux_process_ticker_event
c0de88e6 c0de88e6       3c     2         build/flex/obj/sdk/lib_ux_nbgl/ux.o:(.text.ux_process_default_event)
c0de88e6 c0de88e6        0     1                 $t.2
c0de88e7 c0de88e7       3c     1                 ux_process_default_event
c0de8922 c0de8922        a     1         build/flex/obj/sdk/src/cx_stubs.o:(.text.cx_aes_gcm_check_tag)
c0de8922 c0de8922        0     1                 $t.2
c0de8923 c0de8923        0     1                 cx_aes_gcm_check_tag
c0de892c c0de892c        a     1         build/flex/obj/sdk/src/cx_stubs.o:(.text.cx_aes_gcm_finish)
c0de892c c0de892c        0     1                 $t.5
c0de892d c0de892d        0     1                 cx_aes_gcm_finish
c0de8936 c0de8936        a     1         build/flex/obj/sdk/src/cx_stubs.o:(.text.cx_aes_gcm_init)
c0de8936 c0de8936        0     1                 $t.6
c0de8937 c0de8937        0     1                 cx_aes_gcm_init
c0de8940 c0de8940        a     1         build/flex/obj/sdk/src/cx_stubs.o:(.text.cx_aes_gcm_set_key)
c0de8940 c0de8940        0     1                 $t.7
c0de8941 c0de8941        0     1                 cx_aes_gcm_set_key
c0de894a c0de894a        a     1         build/flex/obj/sdk/src/cx_stubs.o:(.text.cx_aes_gcm_start)
c0de894a c0de894a        0     1                 $t.8
c0de894b c0de894b        0     1                 cx_aes_gcm_start
c0de8954 c0de8954        a     1         build/flex/obj/sdk/src/cx_stubs.o:(.text.cx_aes_gcm_update_aad)
c0de8954 c0de8954        0     1                 $t.9
c0de8955 c0de8955        0     1                 cx_aes_gcm_update_aad
c0de895e c0de895e        a     1         build/flex/obj/sdk/src/cx_stubs.o:(.text.cx_aes_gcm_update)
c0de895e c0de895e        0     1                 $t.10
c0de895f c0de895f        0     1                 cx_aes_gcm_update
c0de8968 c0de8968        a     1         build/flex/obj/sdk/src/cx_stubs.o:(.text.cx_hmac_sha256)
c0de8968 c0de8968        0     1                 $t.80
c0de8969 c0de8969        0     1                 cx_hmac_sha256
c0de8972 c0de8972        a     1         build/flex/obj/sdk/src/cx_stubs.o:(.text.cx_rng_no_throw)
c0de8972 c0de8972        0     1                 $t.106
c0de8973 c0de8973        0     1                 cx_rng_no_throw
c0de897c c0de897c       10     4         build/flex/obj/sdk/src/cx_stubs.o:(.text.cx_aes_siv_reset)
c0de897c c0de897c        0     1                 $t.144
c0de897d c0de897d        0     1                 cx_aes_siv_reset
c0de8985 c0de8985        0     1                 cx_trampoline_helper
c0de8988 c0de8988        0     1                 $d.145
c0de898c c0de898c       44     2         build/flex/obj/sdk/src/ledger_assert.o:(.text.assert_display_lr_and_pc)
c0de898c c0de898c        0     1                 $t.0
c0de898d c0de898d       44     1                 assert_display_lr_and_pc
c0de89d0 c0de89d0       34     2         build/flex/obj/sdk/src/ledger_assert.o:(.text.assert_print_lr_and_pc)
c0de89d0 c0de89d0        0     1                 $t.1
c0de89d1 c0de89d1       34     1                 assert_print_lr_and_pc
c0de8a04 c0de8a04       38     2         build/flex/obj/sdk/src/ledger_assert.o:(.text.assert_display_file_info)
c0de8a04 c0de8a04        0     1                 $t.2
c0de8a05 c0de8a05       38     1                 assert_display_file_info
c0de8a3c c0de8a3c       16     2         build/flex/obj/sdk/src/ledger_assert.o:(.text.assert_print_file_info)
c0de8a3c c0de8a3c        0     1                 $t.3
c0de8a3d c0de8a3d       16     1                 assert_print_file_info
c0de8a52 c0de8a52       30     2         build/flex/obj/sdk/src/ledger_assert.o:(.text.throw_display_lr)
c0de8a52 c0de8a52        0     1                 $t.4
c0de8a53 c0de8a53       30     1                 throw_display_lr
c0de8a82 c0de8a82       1e     2         build/flex/obj/sdk/src/ledger_assert.o:(.text.throw_print_lr)
c0de8a82 c0de8a82        0     1                 $t.5
c0de8a83 c0de8a83       1e     1                 throw_print_lr
c0de8aa0 c0de8aa0        6     2         build/flex/obj/sdk/src/ledger_assert.o:(.text.assert_exit)
c0de8aa0 c0de8aa0        0     1                 $t.6
c0de8aa1 c0de8aa1        6     1                 assert_exit
c0de8aa8 c0de8aa8       46     4         build/flex/obj/sdk/src/ledger_assert.o:(.text.assert_display_exit)
c0de8aa8 c0de8aa8        0     1                 $t.7
c0de8aa9 c0de8aa9       46     1                 assert_display_exit
c0de8aee c0de8aee        a     1         build/flex/obj/sdk/src/nbgl_stubs.o:(.text.nbgl_refresh)
c0de8aee c0de8aee        0     1                 $t.0
c0de8aef c0de8aef        0     1                 nbgl_refresh
c0de8af8 c0de8af8        a     1         build/flex/obj/sdk/src/nbgl_stubs.o:(.text.nbgl_refreshSpecial)
c0de8af8 c0de8af8        0     1                 $t.1
c0de8af9 c0de8af9        0     1                 nbgl_refreshSpecial
c0de8b02 c0de8b02        a     1         build/flex/obj/sdk/src/nbgl_stubs.o:(.text.nbgl_refreshSpecialWithPostRefresh)
c0de8b02 c0de8b02        0     1                 $t.2
c0de8b03 c0de8b03        0     1                 nbgl_refreshSpecialWithPostRefresh
c0de8b0c c0de8b0c        a     1         build/flex/obj/sdk/src/nbgl_stubs.o:(.text.nbgl_objInit)
c0de8b0c c0de8b0c        0     1                 $t.5
c0de8b0d c0de8b0d        0     1                 nbgl_objInit
c0de8b16 c0de8b16        a     1         build/flex/obj/sdk/src/nbgl_stubs.o:(.text.nbgl_objDraw)
c0de8b16 c0de8b16        0     1                 $t.6
c0de8b17 c0de8b17        0     1                 nbgl_objDraw
c0de8b20 c0de8b20        a     1         build/flex/obj/sdk/src/nbgl_stubs.o:(.text.nbgl_objAllowDrawing)
c0de8b20 c0de8b20        0     1                 $t.7
c0de8b21 c0de8b21        0     1                 nbgl_objAllowDrawing
c0de8b2a c0de8b2a        a     1         build/flex/obj/sdk/src/nbgl_stubs.o:(.text.nbgl_screenSet)
c0de8b2a c0de8b2a        0     1                 $t.10
c0de8b2b c0de8b2b        0     1                 nbgl_screenSet
c0de8b34 c0de8b34        a     1         build/flex/obj/sdk/src/nbgl_stubs.o:(.text.nbgl_screenPush)
c0de8b34 c0de8b34        0     1                 $t.11
c0de8b35 c0de8b35        0     1                 nbgl_screenPush
c0de8b3e c0de8b3e        a     1         build/flex/obj/sdk/src/nbgl_stubs.o:(.text.nbgl_screenRedraw)
c0de8b3e c0de8b3e        0     1                 $t.12
c0de8b3f c0de8b3f        0     1                 nbgl_screenRedraw
c0de8b48 c0de8b48        a     1         build/flex/obj/sdk/src/nbgl_stubs.o:(.text.nbgl_screenPop)
c0de8b48 c0de8b48        0     1                 $t.13
c0de8b49 c0de8b49        0     1                 nbgl_screenPop
c0de8b52 c0de8b52        a     1         build/flex/obj/sdk/src/nbgl_stubs.o:(.text.nbgl_screenUpdateTicker)
c0de8b52 c0de8b52        0     1                 $t.19
c0de8b53 c0de8b53        0     1                 nbgl_screenUpdateTicker
c0de8b5c c0de8b5c        a     1         build/flex/obj/sdk/src/nbgl_stubs.o:(.text.nbgl_screenHandler)
c0de8b5c c0de8b5c        0     1                 $t.22
c0de8b5d c0de8b5d        0     1                 nbgl_screenHandler
c0de8b66 c0de8b66        a     1         build/flex/obj/sdk/src/nbgl_stubs.o:(.text.nbgl_objPoolGet)
c0de8b66 c0de8b66        0     1                 $t.23
c0de8b67 c0de8b67        0     1                 nbgl_objPoolGet
c0de8b70 c0de8b70        a     1         build/flex/obj/sdk/src/nbgl_stubs.o:(.text.nbgl_containerPoolGet)
c0de8b70 c0de8b70        0     1                 $t.25
c0de8b71 c0de8b71        0     1                 nbgl_containerPoolGet
c0de8b7a c0de8b7a        a     1         build/flex/obj/sdk/src/nbgl_stubs.o:(.text.nbgl_getFont)
c0de8b7a c0de8b7a        0     1                 $t.27
c0de8b7b c0de8b7b        0     1                 nbgl_getFont
c0de8b84 c0de8b84        a     1         build/flex/obj/sdk/src/nbgl_stubs.o:(.text.nbgl_getFontHeight)
c0de8b84 c0de8b84        0     1                 $t.28
c0de8b85 c0de8b85        0     1                 nbgl_getFontHeight
c0de8b8e c0de8b8e        a     1         build/flex/obj/sdk/src/nbgl_stubs.o:(.text.nbgl_getFontLineHeight)
c0de8b8e c0de8b8e        0     1                 $t.29
c0de8b8f c0de8b8f        0     1                 nbgl_getFontLineHeight
c0de8b98 c0de8b98        a     1         build/flex/obj/sdk/src/nbgl_stubs.o:(.text.nbgl_getTextHeightInWidth)
c0de8b98 c0de8b98        0     1                 $t.33
c0de8b99 c0de8b99        0     1                 nbgl_getTextHeightInWidth
c0de8ba2 c0de8ba2        a     1         build/flex/obj/sdk/src/nbgl_stubs.o:(.text.nbgl_getTextNbLinesInWidth)
c0de8ba2 c0de8ba2        0     1                 $t.35
c0de8ba3 c0de8ba3        0     1                 nbgl_getTextNbLinesInWidth
c0de8bac c0de8bac        a     1         build/flex/obj/sdk/src/nbgl_stubs.o:(.text.nbgl_getTextWidth)
c0de8bac c0de8bac        0     1                 $t.37
c0de8bad c0de8bad        0     1                 nbgl_getTextWidth
c0de8bb6 c0de8bb6        a     1         build/flex/obj/sdk/src/nbgl_stubs.o:(.text.nbgl_getTextMaxLenInNbLines)
c0de8bb6 c0de8bb6        0     1                 $t.38
c0de8bb7 c0de8bb7        0     1                 nbgl_getTextMaxLenInNbLines
c0de8bc0 c0de8bc0        a     1         build/flex/obj/sdk/src/nbgl_stubs.o:(.text.nbgl_textReduceOnNbLines)
c0de8bc0 c0de8bc0        0     1                 $t.39
c0de8bc1 c0de8bc1        0     1                 nbgl_textReduceOnNbLines
c0de8bca c0de8bca        a     1         build/flex/obj/sdk/src/nbgl_stubs.o:(.text.nbgl_touchHandler)
c0de8bca c0de8bca        0     1                 $t.42
c0de8bcb c0de8bcb        0     1                 nbgl_touchHandler
c0de8bd4 c0de8bd4        a     1         build/flex/obj/sdk/src/nbgl_stubs.o:(.text.nbgl_touchGetTouchDuration)
c0de8bd4 c0de8bd4        0     1                 $t.43
c0de8bd5 c0de8bd5        0     1                 nbgl_touchGetTouchDuration
c0de8be0 c0de8be0       10     4         build/flex/obj/sdk/src/nbgl_stubs.o:(.text.pic_init)
c0de8be0 c0de8be0        0     1                 $t.51
c0de8be1 c0de8be1        0     1                 pic_init
c0de8be9 c0de8be9        0     1                 nbgl_trampoline_helper
c0de8bec c0de8bec        0     1                 $d.52
c0de8bf0 c0de8bf0        a     2         build/flex/obj/sdk/src/os.o:(.text.os_boot)
c0de8bf0 c0de8bf0        0     1                 $t.0
c0de8bf1 c0de8bf1        a     1                 os_boot
c0de8bfa c0de8bfa       1c     2         build/flex/obj/sdk/src/os.o:(.text.os_longjmp)
c0de8bfa c0de8bfa        0     1                 $t.3
c0de8bfb c0de8bfb       1c     1                 os_longjmp
c0de8c16 c0de8c16       16     2         build/flex/obj/sdk/src/os.o:(.text.compute_address_location)
c0de8c16 c0de8c16        0     1                 $t.5
c0de8c17 c0de8c17       16     1                 compute_address_location
c0de8c2c c0de8c2c      60c     4         build/flex/obj/sdk/src/os_printf.o:(.text.mcu_usb_printf)
c0de8c2c c0de8c2c        0     1                 $t.1
c0de8c2d c0de8c2d      60c     1                 mcu_usb_printf
c0de8c2d c0de8c2d      60c     1                 screen_printf
c0de9238 c0de9238      688     4         build/flex/obj/sdk/src/os_printf.o:(.text.vformat_internal)
c0de9238 c0de9238        0     1                 $t.2
c0de9239 c0de9239      688     1                 vformat_internal
c0de98c0 c0de98c0       58     2         build/flex/obj/sdk/src/os_printf.o:(.text.snprintf)
c0de98c0 c0de98c0        0     1                 $t.3
c0de98c1 c0de98c1       58     1                 snprintf
c0de9918 c0de9918       9a     4         build/flex/obj/sdk/src/os_printf.o:(.text.sprintf_output)
c0de9918 c0de9918        0     1                 $t.4
c0de9919 c0de9919       9a     1                 sprintf_output
c0de99b4 c0de99b4       3c     4         build/flex/obj/sdk/src/pic.o:(.text.pic)
c0de99b4 c0de99b4        0     1                 $t.0
c0de99b5 c0de99b5       2c     1                 pic
c0de99e0 c0de99e0        0     1                 $d.2
c0de99f0 c0de99f0       10     4         build/flex/obj/sdk/src/pic.o:(.text.pic_internal)
c0de99f0 c0de99f0        0     1                 $t.1
c0de99f1 c0de99f1        c     1                 pic_internal
c0de99fc c0de99fc        0     1                 $d.3
c0de9a00 c0de9a00        e     4         build/flex/obj/sdk/src/svc_call.o:(.text)
c0de9a00 c0de9a00        0     1                 $t.0
c0de9a01 c0de9a01        0     1                 SVC_Call
c0de9a08 c0de9a08        0     1                 exception
c0de9a0e c0de9a0e       18     2         build/flex/obj/sdk/src/syscalls.o:(.text.nbgl_wait_pipeline)
c0de9a0e c0de9a0e        0     1                 $t.9
c0de9a0f c0de9a0f       18     1                 nbgl_wait_pipeline
c0de9a26 c0de9a26       20     2         build/flex/obj/sdk/src/syscalls.o:(.text.os_perso_derive_node_bip32)
c0de9a26 c0de9a26        0     1                 $t.98
c0de9a27 c0de9a27       20     1                 os_perso_derive_node_bip32
c0de9a46 c0de9a46       20     2         build/flex/obj/sdk/src/syscalls.o:(.text.os_pki_load_certificate)
c0de9a46 c0de9a46        0     1                 $t.103
c0de9a47 c0de9a47       20     1                 os_pki_load_certificate
c0de9a66 c0de9a66       16     2         build/flex/obj/sdk/src/syscalls.o:(.text.os_perso_is_pin_set)
c0de9a66 c0de9a66        0     1                 $t.114
c0de9a67 c0de9a67       16     1                 os_perso_is_pin_set
c0de9a7c c0de9a7c       16     2         build/flex/obj/sdk/src/syscalls.o:(.text.os_global_pin_is_validated)
c0de9a7c c0de9a7c        0     1                 $t.115
c0de9a7d c0de9a7d       16     1                 os_global_pin_is_validated
c0de9a92 c0de9a92       1a     2         build/flex/obj/sdk/src/syscalls.o:(.text.os_ux)
c0de9a92 c0de9a92        0     1                 $t.119
c0de9a93 c0de9a93       1a     1                 os_ux
c0de9aac c0de9aac       14     2         build/flex/obj/sdk/src/syscalls.o:(.text.os_flags)
c0de9aac c0de9aac        0     1                 $t.122
c0de9aad c0de9aad       14     1                 os_flags
c0de9ac0 c0de9ac0       18     2         build/flex/obj/sdk/src/syscalls.o:(.text.os_setting_get)
c0de9ac0 c0de9ac0        0     1                 $t.129
c0de9ac1 c0de9ac1       18     1                 os_setting_get
c0de9ad8 c0de9ad8       18     2         build/flex/obj/sdk/src/syscalls.o:(.text.os_registry_get_current_app_tag)
c0de9ad8 c0de9ad8        0     1                 $t.131
c0de9ad9 c0de9ad9       18     1                 os_registry_get_current_app_tag
c0de9af0 c0de9af0       16     2         build/flex/obj/sdk/src/syscalls.o:(.text.os_sched_exit)
c0de9af0 c0de9af0        0     1                 $t.132
c0de9af1 c0de9af1       16     1                 os_sched_exit
c0de9b06 c0de9b06       16     2         build/flex/obj/sdk/src/syscalls.o:(.text.os_io_init)
c0de9b06 c0de9b06        0     1                 $t.138
c0de9b07 c0de9b07       16     1                 os_io_init
c0de9b1c c0de9b1c       18     2         build/flex/obj/sdk/src/syscalls.o:(.text.os_io_start)
c0de9b1c c0de9b1c        0     1                 $t.139
c0de9b1d c0de9b1d       18     1                 os_io_start
c0de9b34 c0de9b34       18     2         build/flex/obj/sdk/src/syscalls.o:(.text.os_io_stop)
c0de9b34 c0de9b34        0     1                 $t.140
c0de9b35 c0de9b35       18     1                 os_io_stop
c0de9b4c c0de9b4c       18     2         build/flex/obj/sdk/src/syscalls.o:(.text.os_io_tx_cmd)
c0de9b4c c0de9b4c        0     1                 $t.141
c0de9b4d c0de9b4d       18     1                 os_io_tx_cmd
c0de9b64 c0de9b64       18     2         build/flex/obj/sdk/src/syscalls.o:(.text.os_io_rx_evt)
c0de9b64 c0de9b64        0     1                 $t.142
c0de9b65 c0de9b65       18     1                 os_io_rx_evt
c0de9b7c c0de9b7c       14     2         build/flex/obj/sdk/src/syscalls.o:(.text.try_context_get)
c0de9b7c c0de9b7c        0     1                 $t.145
c0de9b7d c0de9b7d       14     1                 try_context_get
c0de9b90 c0de9b90       1c     2         build/flex/obj/sdk/src/syscalls.o:(.text.try_context_set)
c0de9b90 c0de9b90        0     1                 $t.146
c0de9b91 c0de9b91       1c     1                 try_context_set
c0de9bac c0de9bac       1c     2         build/flex/obj/sdk/src/syscalls.o:(.text.os_sched_last_status)
c0de9bac c0de9bac        0     1                 $t.147
c0de9bad c0de9bad       1c     1                 os_sched_last_status
c0de9bc8 c0de9bc8       16     2         build/flex/obj/sdk/src/syscalls.o:(.text.touch_get_last_info)
c0de9bc8 c0de9bc8        0     1                 $t.158
c0de9bc9 c0de9bc9       16     1                 touch_get_last_info
c0de9be0 c0de9be0      1c6     4         /opt/flex-secure-sdk/arch/st33k1/lib/libclang_rt.builtins.a(udivmoddi4.c.o):(.text)
c0de9be0 c0de9be0        0     1                 $t.0
c0de9be1 c0de9be1      1c6     1                 __udivmoddi4
c0de9da8 c0de9da8        4     4         /opt/flex-secure-sdk/arch/st33k1/lib/libclang_rt.builtins.a(aeabi_memcpy.S.o):(.text)
c0de9da8 c0de9da8        0     1                 $t.0
c0de9da9 c0de9da9        4     1                 __aeabi_memcpy
c0de9da9 c0de9da9        4     1                 __aeabi_memcpy4
c0de9da9 c0de9da9        4     1                 __aeabi_memcpy8
c0de9dac c0de9dac        4     4         /opt/flex-secure-sdk/arch/st33k1/lib/libclang_rt.builtins.a(aeabi_memmove.S.o):(.text)
c0de9dac c0de9dac        0     1                 $t.0
c0de9dad c0de9dad        4     1                 __aeabi_memmove
c0de9dad c0de9dad        4     1                 __aeabi_memmove4
c0de9dad c0de9dad        4     1                 __aeabi_memmove8
c0de9db0 c0de9db0       14     4         /opt/flex-secure-sdk/arch/st33k1/lib/libclang_rt.builtins.a(aeabi_memset.S.o):(.text)
c0de9db0 c0de9db0        0     1                 $t.0
c0de9db1 c0de9db1        a     1                 __aeabi_memset
c0de9db1 c0de9db1        a     1                 __aeabi_memset4
c0de9db1 c0de9db1        a     1                 __aeabi_memset8
c0de9dbd c0de9dbd        8     1                 __aeabi_memclr
c0de9dbd c0de9dbd        8     1                 __aeabi_memclr4
c0de9dbd c0de9dbd        8     1                 __aeabi_memclr8
c0de9dc4 c0de9dc4       14     4         /opt/flex-secure-sdk/arch/st33k1/lib/libclang_rt.builtins.a(aeabi_uldivmod.S.o):(.text)
c0de9dc4 c0de9dc4        0     1                 $t.0
c0de9dc5 c0de9dc5       14     1                 __aeabi_uldivmod
c0de9dd8 c0de9dd8        4     2         /opt/flex-secure-sdk/arch/st33k1/lib/libc.a(lib_a-explicit_bzero.o):(.text.explicit_bzero)
c0de9dd8 c0de9dd8        0     1                 $t
c0de9dd9 c0de9dd9        4     1                 explicit_bzero
c0de9ddc c0de9ddc        8     2         /opt/flex-secure-sdk/arch/st33k1/lib/libc.a(lib_a-bzero.o):(.text.bzero)
c0de9ddc c0de9ddc        0     1                 $t
c0de9ddd c0de9ddd        8     1                 bzero
c0de9de4 c0de9de4       20     2         /opt/flex-secure-sdk/arch/st33k1/lib/libc.a(lib_a-memcmp.o):(.text.memcmp)
c0de9de4 c0de9de4        0     1                 $t
c0de9de5 c0de9de5       20     1                 memcmp
c0de9e04 c0de9e04       1c     2         /opt/flex-secure-sdk/arch/st33k1/lib/libc.a(lib_a-memcpy-stub.o):(.text.memcpy)
c0de9e04 c0de9e04        0     1                 $t
c0de9e05 c0de9e05       1c     1                 memcpy
c0de9e20 c0de9e20       34     2         /opt/flex-secure-sdk/arch/st33k1/lib/libc.a(lib_a-memmove.o):(.text.memmove)
c0de9e20 c0de9e20        0     1                 $t
c0de9e21 c0de9e21       34     1                 memmove
c0de9e54 c0de9e54       10     2         /opt/flex-secure-sdk/arch/st33k1/lib/libc.a(lib_a-memset.o):(.text.memset)
c0de9e54 c0de9e54        0     1                 $t
c0de9e55 c0de9e55       10     1                 memset
c0de9e64 c0de9e64       1c     4         /opt/flex-secure-sdk/arch/st33k1/lib/libc.a(lib_a-setjmp.o):(.text)
c0de9e64 c0de9e64        0     1                 $t
c0de9e65 c0de9e65        c     1                 setjmp
c0de9e71 c0de9e71        e     1                 longjmp
c0de9e80 c0de9e80       10     2         /opt/flex-secure-sdk/arch/st33k1/lib/libc.a(lib_a-strlen.o):(.text)
c0de9e80 c0de9e80        0     1                 $t
c0de9e81 c0de9e81       10     1                 strlen
c0de9e90 c0de9e90       2a     2         /opt/flex-secure-sdk/arch/st33k1/lib/libc.a(lib_a-strncat.o):(.text.strncat)
c0de9e90 c0de9e90        0     1                 $t
c0de9e91 c0de9e91       2a     1                 strncat
c0de9eba c0de9eba        0     1         _ecode = .
c0de9eba c0de9eba       bb     1         build/flex/gen_src/glyphs.o:(.rodata.C_app_boilerplate_64px_bitmap)
c0de9eba c0de9eba       bb     1                 C_app_boilerplate_64px_bitmap
c0de9f75 c0de9f75        a     1         build/flex/gen_src/glyphs.o:(.rodata.C_app_boilerplate_64px)
c0de9f75 c0de9f75        a     1                 C_app_boilerplate_64px
c0de9f7f c0de9f7f      12c     1         build/flex/gen_src/glyphs.o:(.rodata.C_switch_60_40_bitmap)
c0de9f7f c0de9f7f      12c     1                 C_switch_60_40_bitmap
c0dea0ab c0dea0ab        a     1         build/flex/gen_src/glyphs.o:(.rodata.C_switch_60_40)
c0dea0ab c0dea0ab        a     1                 C_switch_60_40
c0dea0b5 c0dea0b5      202     1         build/flex/gen_src/glyphs.o:(.rodata.C_Important_Circle_64px_bitmap)
c0dea0b5 c0dea0b5      202     1                 C_Important_Circle_64px_bitmap
c0dea2b7 c0dea2b7        a     1         build/flex/gen_src/glyphs.o:(.rodata.C_Important_Circle_64px)
c0dea2b7 c0dea2b7        a     1                 C_Important_Circle_64px
c0dea2c1 c0dea2c1      167     1         build/flex/gen_src/glyphs.o:(.rodata.C_Warning_64px_bitmap)
c0dea2c1 c0dea2c1      167     1                 C_Warning_64px_bitmap
c0dea428 c0dea428        a     1         build/flex/gen_src/glyphs.o:(.rodata.C_Warning_64px)
c0dea428 c0dea428        a     1                 C_Warning_64px
c0dea432 c0dea432       94     1         build/flex/gen_src/glyphs.o:(.rodata.C_Back_40px_bitmap)
c0dea432 c0dea432       94     1                 C_Back_40px_bitmap
c0dea4c6 c0dea4c6        a     1         build/flex/gen_src/glyphs.o:(.rodata.C_Back_40px)
c0dea4c6 c0dea4c6        a     1                 C_Back_40px
c0dea4d0 c0dea4d0       5c     1         build/flex/gen_src/glyphs.o:(.rodata.C_Check_40px_bitmap)
c0dea4d0 c0dea4d0       5c     1                 C_Check_40px_bitmap
c0dea52c c0dea52c        a     1         build/flex/gen_src/glyphs.o:(.rodata.C_Check_40px)
c0dea52c c0dea52c        a     1                 C_Check_40px
c0dea536 c0dea536       64     1         build/flex/gen_src/glyphs.o:(.rodata.C_Chevron_40px_bitmap)
c0dea536 c0dea536       64     1                 C_Chevron_40px_bitmap
c0dea59a c0dea59a        a     1         build/flex/gen_src/glyphs.o:(.rodata.C_Chevron_40px)
c0dea59a c0dea59a        a     1                 C_Chevron_40px
c0dea5a4 c0dea5a4       7e     1         build/flex/gen_src/glyphs.o:(.rodata.C_Chevron_Back_40px_bitmap)
c0dea5a4 c0dea5a4       7e     1                 C_Chevron_Back_40px_bitmap
c0dea622 c0dea622        a     1         build/flex/gen_src/glyphs.o:(.rodata.C_Chevron_Back_40px)
c0dea622 c0dea622        a     1                 C_Chevron_Back_40px
c0dea62c c0dea62c       79     1         build/flex/gen_src/glyphs.o:(.rodata.C_Chevron_Next_40px_bitmap)
c0dea62c c0dea62c       79     1                 C_Chevron_Next_40px_bitmap
c0dea6a5 c0dea6a5        a     1         build/flex/gen_src/glyphs.o:(.rodata.C_Chevron_Next_40px)
c0dea6a5 c0dea6a5        a     1                 C_Chevron_Next_40px
c0dea6af c0dea6af       8d     1         build/flex/gen_src/glyphs.o:(.rodata.C_Close_40px_bitmap)
c0dea6af c0dea6af       8d     1                 C_Close_40px_bitmap
c0dea73c c0dea73c        a     1         build/flex/gen_src/glyphs.o:(.rodata.C_Close_40px)
c0dea73c c0dea73c        a     1                 C_Close_40px
c0dea746 c0dea746       39     1         build/flex/gen_src/glyphs.o:(.rodata.C_Info_40px_bitmap)
c0dea746 c0dea746       39     1                 C_Info_40px_bitmap
c0dea77f c0dea77f        a     1         build/flex/gen_src/glyphs.o:(.rodata.C_Info_40px)
c0dea77f c0dea77f        a     1                 C_Info_40px
c0dea789 c0dea789       d6     1         build/flex/gen_src/glyphs.o:(.rodata.C_Mini_Push_40px_bitmap)
c0dea789 c0dea789       d6     1                 C_Mini_Push_40px_bitmap
c0dea85f c0dea85f        a     1         build/flex/gen_src/glyphs.o:(.rodata.C_Mini_Push_40px)
c0dea85f c0dea85f        a     1                 C_Mini_Push_40px
c0dea869 c0dea869      1b4     1         build/flex/gen_src/glyphs.o:(.rodata.C_Privacy_40px_bitmap)
c0dea869 c0dea869      1b4     1                 C_Privacy_40px_bitmap
c0deaa1d c0deaa1d        a     1         build/flex/gen_src/glyphs.o:(.rodata.C_Privacy_40px)
c0deaa1d c0deaa1d        a     1                 C_Privacy_40px
c0deaa27 c0deaa27      19b     1         build/flex/gen_src/glyphs.o:(.rodata.C_Settings_40px_bitmap)
c0deaa27 c0deaa27      19b     1                 C_Settings_40px_bitmap
c0deabc2 c0deabc2        a     1         build/flex/gen_src/glyphs.o:(.rodata.C_Settings_40px)
c0deabc2 c0deabc2        a     1                 C_Settings_40px
c0deabcc c0deabcc       ef     1         build/flex/gen_src/glyphs.o:(.rodata.C_Warning_40px_bitmap)
c0deabcc c0deabcc       ef     1                 C_Warning_40px_bitmap
c0deacbb c0deacbb        a     1         build/flex/gen_src/glyphs.o:(.rodata.C_Warning_40px)
c0deacbb c0deacbb        a     1                 C_Warning_40px
c0deacc5 c0deacc5      6f8     1         <internal>:(.text)
c0deb3c0 c0deb3c0       41     4         <internal>:(.text)
c0deb401 c0deb401        8     1         build/flex/obj/app/src/handler/encrypt_decrypt.o:(.rodata.MAGIC)
c0deb401 c0deb401        8     1                 MAGIC
c0deb40c c0deb40c       14     4         build/flex/obj/app/src/handler/encrypt_decrypt.o:(.rodata.DERIVATION_PATH)
c0deb40c c0deb40c       14     1                 DERIVATION_PATH
c0deb420 c0deb420       11     1         build/flex/obj/app/src/handler/encrypt_decrypt.o:(.rodata.HKDF_SALT)
c0deb420 c0deb420       11     1                 HKDF_SALT
c0deb434 c0deb434       22     4         build/flex/obj/app/src/handler/encrypt_decrypt.o:(.rodata.HKDF_INFO)
c0deb434 c0deb434       22     1                 HKDF_INFO
c0deb458 c0deb458        c     4         build/flex/obj/app/src/ui/menu_nbgl.o:(.rodata.settingContents)
c0deb458 c0deb458        c     1                 settingContents
c0deb464 c0deb464       10     4         build/flex/obj/app/src/ui/menu_nbgl.o:(.rodata.infoList)
c0deb464 c0deb464       10     1                 infoList
c0deb474 c0deb474        b     1         build/flex/obj/sdk/lib_nbgl/src/nbgl_use_case.o:(.rodata.nbMaxElementsPerContentType)
c0deb474 c0deb474        b     1                 nbMaxElementsPerContentType
c0deb480 c0deb480       14     4         build/flex/obj/sdk/lib_nbgl/src/nbgl_use_case.o:(.rodata..L__const.displayAddressQRCode.headerDesc)
c0deb480 c0deb480       14     1                 .L__const.displayAddressQRCode.headerDesc
c0deb494 c0deb494       20     4         build/flex/obj/sdk/lib_nbgl/src/nbgl_use_case.o:(.rodata..L__const.displaySkipWarning.info)
c0deb494 c0deb494       20     1                 .L__const.displaySkipWarning.info
c0deb4b4 c0deb4b4       1c     4         build/flex/obj/sdk/lib_nbgl/src/nbgl_use_case.o:(.rodata..L__const.displaySecurityReport.layoutDescription)
c0deb4b4 c0deb4b4       1c     1                 .L__const.displaySecurityReport.layoutDescription
c0deb4d0 c0deb4d0       14     4         build/flex/obj/sdk/lib_nbgl/src/nbgl_use_case.o:(.rodata..L__const.displaySecurityReport.headerDesc)
c0deb4d0 c0deb4d0       14     1                 .L__const.displaySecurityReport.headerDesc
c0deb4e4 c0deb4e4       48     4         build/flex/obj/sdk/lib_nbgl/src/nbgl_use_case.o:(.rodata.securityReportItems)
c0deb4e4 c0deb4e4       48     1                 securityReportItems
c0deb52c c0deb52c       1c     4         build/flex/obj/sdk/lib_nbgl/src/nbgl_use_case.o:(.rodata..L__const.displayInfosListModal.info)
c0deb52c c0deb52c       1c     1                 .L__const.displayInfosListModal.info
c0deb548 c0deb548       20     1         <internal>:(.text)
c0deb568 c0deb568        0     1         . = ALIGN ( 4 )
c0deb568 c0deb568        0     1         _etext = .
c0deb568 c0deb568       98     1         . = ALIGN ( PAGE_SIZE )
c0deb600 c0deb600        0     1         _nvram_data = .
c0deb600 c0deb600        0     1         . = ALIGN ( PAGE_SIZE )
c0deb600 c0deb600        0     1         _envram_data = .
c0deb600 c0deb600        0     1         _install_parameters = .
c0deb600 c0deb600      10b     1         build/flex/obj/sdk/src/app_metadata.o:(.install_parameters)
c0deb600 c0deb600      10b     1                 install_parameters
c0deb70b c0deb70b        0     1         _einstall_parameters = .
c0deb70b c0deb70b        0     1         _nvram_end = .
d0000000 d0000000        0     1 .data
d0000000 d0000000        0     1         . = ALIGN ( 4 )
d0000000 d0000000        0     1         _data = .
d0000000 d0000000        0     1         _edata = .
d0000000 d0000000        0     1 
da7a0000 da7a0000     9000     4 .bss
da7a0000 da7a0000        0     1         _bss = .
da7a0000 da7a0000       7c     4         build/flex/obj/app/src/handler/encrypt_decrypt.o:(.bss.G_session)
da7a0000 da7a0000       7c     1                 G_session
da7a007c da7a007c      111     1         build/flex/obj/sdk/io/src/os_io.o:(.bss.G_io_tx_buffer)
da7a007c da7a007c      111     1                 G_io_tx_buffer
da7a018d da7a018d      111     1         build/flex/obj/sdk/io/src/os_io.o:(.bss.G_io_rx_buffer)
da7a018d da7a018d      111     1                 G_io_rx_buffer
da7a029e da7a029e        1     1         build/flex/obj/sdk/io_legacy/src/os_io_legacy.o:(.bss.need_to_start_io)
da7a029e da7a029e        1     1                 need_to_start_io
da7a02a0 da7a02a0        c     4         build/flex/obj/sdk/io_legacy/src/os_io_legacy.o:(.bss.G_io_app)
da7a02a0 da7a02a0        c     1                 G_io_app
da7a02ac da7a02ac        1     1         build/flex/obj/sdk/io_legacy/src/os_io_legacy.o:(.bss.io_os_legacy_apdu_type)
da7a02ac da7a02ac        1     1                 io_os_legacy_apdu_type
da7a02b0 da7a02b0      21c     4         build/flex/obj/sdk/lib_nbgl/src/nbgl_layout.o:(.bss.gLayout)
da7a02b0 da7a02b0      21c     1                 gLayout
da7a04cc da7a04cc        4     4         build/flex/obj/sdk/lib_nbgl/src/nbgl_layout.o:(.bss.topLayout)
da7a04cc da7a04cc        4     1                 topLayout
da7a04d0 da7a04d0        1     1         build/flex/obj/sdk/lib_nbgl/src/nbgl_layout.o:(.bss.nbTouchableControls)
da7a04d0 da7a04d0        1     1                 nbTouchableControls
da7a04d1 da7a04d1        b     1         build/flex/obj/sdk/lib_nbgl/src/nbgl_layout_navigation.o:(.bss.navText)
da7a04d1 da7a04d1        b     1                 navText
da7a04dc da7a04dc        4     4         build/flex/obj/sdk/lib_nbgl/src/nbgl_use_case.o:(.bss.onQuit)
da7a04dc da7a04dc        4     1                 onQuit
da7a04e0 da7a04e0        4     4         build/flex/obj/sdk/lib_nbgl/src/nbgl_use_case.o:(.bss.onNav)
da7a04e0 da7a04e0        4     1                 onNav
da7a04e4 da7a04e4        4     4         build/flex/obj/sdk/lib_nbgl/src/nbgl_use_case.o:(.bss.onControls)
da7a04e4 da7a04e4        4     1                 onControls
da7a04e8 da7a04e8        4     4         build/flex/obj/sdk/lib_nbgl/src/nbgl_use_case.o:(.bss.pageTitle)
da7a04e8 da7a04e8        4     1                 pageTitle
da7a04ec da7a04ec        1     1         build/flex/obj/sdk/lib_nbgl/src/nbgl_use_case.o:(.bss.navType)
da7a04ec da7a04ec        1     1                 navType
da7a04f0 da7a04f0       90     4         build/flex/obj/sdk/lib_nbgl/src/nbgl_use_case.o:(.bss.genericContext)
da7a04f0 da7a04f0       90     1                 genericContext
da7a0580 da7a0580       a8     4         build/flex/obj/sdk/lib_nbgl/src/nbgl_use_case.o:(.bss.localContentsList)
da7a0580 da7a0580       a8     1                 localContentsList
da7a0628 da7a0628       28     4         build/flex/obj/sdk/lib_nbgl/src/nbgl_use_case.o:(.bss.bundleNavContext)
da7a0628 da7a0628       28     1                 bundleNavContext
da7a0650 da7a0650        4     4         build/flex/obj/sdk/lib_nbgl/src/nbgl_use_case.o:(.bss.pageContext)
da7a0650 da7a0650        4     1                 pageContext
da7a0654 da7a0654        4     4         build/flex/obj/sdk/lib_nbgl/src/nbgl_use_case.o:(.bss.onChoice)
da7a0654 da7a0654        4     1                 onChoice
da7a0658 da7a0658        4     4         build/flex/obj/sdk/lib_nbgl/src/nbgl_use_case.o:(.bss.onModalConfirm)
da7a0658 da7a0658        4     1                 onModalConfirm
da7a065c da7a065c        4     4         build/flex/obj/sdk/lib_nbgl/src/nbgl_use_case.o:(.bss.modalPageContext)
da7a065c da7a065c        4     1                 modalPageContext
da7a0660 da7a0660        4     4         build/flex/obj/sdk/lib_nbgl/src/nbgl_use_case.o:(.bss.onAction)
da7a0660 da7a0660        4     1                 onAction
da7a0664 da7a0664        4     4         build/flex/obj/sdk/lib_nbgl/src/nbgl_use_case.o:(.bss.onContinue)
da7a0664 da7a0664        4     1                 onContinue
da7a0668 da7a0668       1c     4         build/flex/obj/sdk/lib_nbgl/src/nbgl_use_case.o:(.bss.navInfo)
da7a0668 da7a0668       1c     1                 navInfo
da7a0684 da7a0684       38     4         build/flex/obj/sdk/lib_nbgl/src/nbgl_use_case.o:(.bss.addressConfirmationContext)
da7a0684 da7a0684       38     1                 addressConfirmationContext
da7a06bc da7a06bc       80     4         build/flex/obj/sdk/lib_nbgl/src/nbgl_use_case.o:(.bss.tmpString)
da7a06bc da7a06bc       80     1                 tmpString
da7a073c da7a073c        4     4         build/flex/obj/sdk/lib_nbgl/src/nbgl_use_case.o:(.bss.onContentAction)
da7a073c da7a073c        4     1                 onContentAction
da7a0740 da7a0740       80     1         build/flex/obj/sdk/lib_nbgl/src/nbgl_use_case.o:(.bss.genericContextPagesInfo)
da7a0740 da7a0740       80     1                 genericContextPagesInfo
da7a07c0 da7a07c0       80     1         build/flex/obj/sdk/lib_nbgl/src/nbgl_use_case.o:(.bss.reducedAddress)
da7a07c0 da7a07c0       80     1                 reducedAddress
da7a0840 da7a0840       10     4         build/flex/obj/sdk/lib_nbgl/src/nbgl_use_case.o:(.bss.detailsContext)
da7a0840 da7a0840       10     1                 detailsContext
da7a0850 da7a0850       10     4         build/flex/obj/sdk/lib_nbgl/src/nbgl_use_case.o:(.bss.displayDetailsPage.currentPair)
da7a0850 da7a0850       10     1                 displayDetailsPage.currentPair
da7a0860 da7a0860       10     1         build/flex/obj/sdk/lib_nbgl/src/nbgl_use_case.o:(.bss.modalContextPagesInfo)
da7a0860 da7a0860       10     1                 modalContextPagesInfo
da7a0870 da7a0870      110     1         build/flex/obj/sdk/lib_standard_app/io.o:(.bss.G_io_seproxyhal_spi_buffer)
da7a0870 da7a0870      110     1                 G_io_seproxyhal_spi_buffer
da7a0980 da7a0980        1     1         build/flex/obj/sdk/lib_standard_app/io.o:(.bss.need_to_start_io)
da7a0980 da7a0980        1     1                 need_to_start_io
da7a0984 da7a0984       20     4         build/flex/obj/sdk/lib_standard_app/main.o:(.bss.G_ux_params)
da7a0984 da7a0984       20     1                 G_ux_params
da7a09a4 da7a09a4        1     1         build/flex/obj/sdk/lib_u2f_legacy/src/u2f_legacy.o:(.bss.G_io_u2f)
da7a09a4 da7a09a4        1     1                 G_io_u2f
da7a09a6 da7a09a6        6     2         build/flex/obj/sdk/lib_ux_nbgl/ux.o:(.bss.pos)
da7a09a6 da7a09a6        6     1                 pos
da7a09ac da7a09ac        4     4         build/flex/obj/sdk/lib_ux_nbgl/ux.o:(.bss.nbTicks)
da7a09ac da7a09ac        4     1                 nbTicks
da7a09b0 da7a09b0       82     1         build/flex/obj/sdk/src/ledger_assert.o:(.bss.assert_buffer)
da7a09b0 da7a09b0       82     1                 assert_buffer
da7a0a32 da7a0a32        0     1         _ebss = .
da7a0a32 da7a0a32        2     1         . = ALIGN ( 4 )
da7a0a34 da7a0a34        0     1         app_stack_canary = .
da7a0a34 da7a0a34        4     1         . += 4
da7a0a38 da7a0a38        0     1         _stack = .
da7a0a38 da7a0a38     85c8     1         . = END_STACK
da7a9000 da7a9000        0     1         _estack = .
da7a9000 da7a9000        0     1 
d0000000 d0000000       10     4 DEBUG
d0000000 d0000000       10     4         <internal>:(.ARM.exidx)
       0        0       5d     1 .comment
       0        0       5d     1         <internal>:(.comment)
       0        0     2b3d     1 .debug_info
       0        0       48     1         build/flex/obj/app/src/apdu/dispatcher.o:(.debug_info)
      48       48       3b     1         build/flex/obj/app/src/app_main.o:(.debug_info)
      83       83      176     1         build/flex/obj/app/src/handler/encrypt_decrypt.o:(.debug_info)
     1f9      1f9       3b     1         build/flex/obj/app/src/handler/get_app_name.o:(.debug_info)
     234      234       3b     1         build/flex/obj/app/src/handler/get_version.o:(.debug_info)
     26f      26f       27     1         build/flex/obj/app/src/ui/menu_nbgl.o:(.debug_info)
     296      296       23     1         build/flex/obj/sdk/io/src/os_io.o:(.debug_info)
     2b9      2b9       40     1         build/flex/obj/sdk/io/src/os_io_default_apdu.o:(.debug_info)
     2f9      2f9       3c     1         build/flex/obj/sdk/io/src/os_io_seph_cmd.o:(.debug_info)
     335      335       3b     1         build/flex/obj/sdk/io/src/os_io_seph_ux.o:(.debug_info)
     370      370       4f     1         build/flex/obj/sdk/io_legacy/src/os_io_legacy.o:(.debug_info)
     3bf      3bf      406     1         build/flex/obj/sdk/lib_blewbxx/src/ble_cmd.o:(.debug_info)
     7c5      7c5      450     1         build/flex/obj/sdk/lib_blewbxx/src/ble_ledger.o:(.debug_info)
     c15      c15      130     1         build/flex/obj/sdk/lib_blewbxx/src/ble_ledger_profile_apdu.o:(.debug_info)
     d45      d45      2d5     1         build/flex/obj/sdk/lib_nbgl/src/nbgl_layout.o:(.debug_info)
    101a     101a       73     1         build/flex/obj/sdk/lib_nbgl/src/nbgl_layout_navigation.o:(.debug_info)
    108d     108d       ac     1         build/flex/obj/sdk/lib_nbgl/src/nbgl_page.o:(.debug_info)
    1139     1139      6f2     1         build/flex/obj/sdk/lib_nbgl/src/nbgl_use_case.o:(.debug_info)
    182b     182b       27     1         build/flex/obj/sdk/lib_standard_app/base58.o:(.debug_info)
    1852     1852       27     1         build/flex/obj/sdk/lib_standard_app/bip32.o:(.debug_info)
    1879     1879      1d9     1         build/flex/obj/sdk/lib_standard_app/buffer.o:(.debug_info)
    1a52     1a52       27     1         build/flex/obj/sdk/lib_standard_app/crypto_helpers.o:(.debug_info)
    1a79     1a79       3f     1         build/flex/obj/sdk/lib_standard_app/format.o:(.debug_info)
    1ab8     1ab8       3f     1         build/flex/obj/sdk/lib_standard_app/io.o:(.debug_info)
    1af7     1af7       27     1         build/flex/obj/sdk/lib_standard_app/main.o:(.debug_info)
    1b1e     1b1e       23     1         build/flex/obj/sdk/lib_standard_app/parser.o:(.debug_info)
    1b41     1b41       27     1         build/flex/obj/sdk/lib_standard_app/read.o:(.debug_info)
    1b68     1b68       3f     1         build/flex/obj/sdk/lib_standard_app/varint.o:(.debug_info)
    1ba7     1ba7       27     1         build/flex/obj/sdk/lib_standard_app/write.o:(.debug_info)
    1bce     1bce       27     1         build/flex/obj/sdk/lib_stusb/src/usbd_conf.o:(.debug_info)
    1bf5     1bf5       27     1         build/flex/obj/sdk/lib_stusb/src/usbd_core.o:(.debug_info)
    1c1c     1c1c      114     1         build/flex/obj/sdk/lib_stusb/src/usbd_ctlreq.o:(.debug_info)
    1d30     1d30       27     1         build/flex/obj/sdk/lib_stusb/src/usbd_desc.o:(.debug_info)
    1d57     1d57       27     1         build/flex/obj/sdk/lib_stusb/src/usbd_ioreq.o:(.debug_info)
    1d7e     1d7e      203     1         build/flex/obj/sdk/lib_stusb/src/usbd_ledger.o:(.debug_info)
    1f81     1f81       27     1         build/flex/obj/sdk/lib_stusb/src/usbd_ledger_hid.o:(.debug_info)
    1fa8     1fa8       ab     1         build/flex/obj/sdk/lib_stusb/src/usbd_ledger_hid_u2f.o:(.debug_info)
    2053     2053       27     1         build/flex/obj/sdk/lib_stusb/src/usbd_ledger_webusb.o:(.debug_info)
    207a     207a       7c     1         build/flex/obj/sdk/lib_u2f/src/u2f_transport.o:(.debug_info)
    20f6     20f6       27     1         build/flex/obj/sdk/lib_u2f_legacy/src/u2f_legacy.o:(.debug_info)
    211d     211d       65     1         build/flex/obj/sdk/lib_ux_nbgl/ux.o:(.debug_info)
    2182     2182       83     1         build/flex/obj/sdk/protocol/src/ledger_protocol.o:(.debug_info)
    2205     2205      689     1         build/flex/obj/sdk/qrcode/src/qrcodegen.o:(.debug_info)
    288e     288e       27     1         build/flex/obj/sdk/src/cx_hash_iovec.o:(.debug_info)
    28b5     28b5       23     1         build/flex/obj/sdk/src/cx_wrappers.o:(.debug_info)
    28d8     28d8       27     1         build/flex/obj/sdk/src/ledger_assert.o:(.debug_info)
    28ff     28ff       7a     1         build/flex/obj/sdk/src/os.o:(.debug_info)
    2979     2979      176     1         build/flex/obj/sdk/src/os_printf.o:(.debug_info)
    2aef     2aef       27     1         build/flex/obj/sdk/src/pic.o:(.debug_info)
    2b16     2b16       27     1         build/flex/obj/sdk/src/syscalls.o:(.debug_info)
       0        0      d13     1 .debug_abbrev
       0        0       40     1         build/flex/obj/app/src/apdu/dispatcher.o:(.debug_abbrev)
      40       40       40     1         build/flex/obj/app/src/app_main.o:(.debug_abbrev)
      80       80       80     1         build/flex/obj/app/src/handler/encrypt_decrypt.o:(.debug_abbrev)
     100      100       40     1         build/flex/obj/app/src/handler/get_app_name.o:(.debug_abbrev)
     140      140       40     1         build/flex/obj/app/src/handler/get_version.o:(.debug_abbrev)
     180      180       1a     1         build/flex/obj/app/src/ui/menu_nbgl.o:(.debug_abbrev)
     19a      19a       18     1         build/flex/obj/sdk/io/src/os_io.o:(.debug_abbrev)
     1b2      1b2       42     1         build/flex/obj/sdk/io/src/os_io_default_apdu.o:(.debug_abbrev)
     1f4      1f4       40     1         build/flex/obj/sdk/io/src/os_io_seph_cmd.o:(.debug_abbrev)
     234      234       40     1         build/flex/obj/sdk/io/src/os_io_seph_ux.o:(.debug_abbrev)
     274      274       4f     1         build/flex/obj/sdk/io_legacy/src/os_io_legacy.o:(.debug_abbrev)
     2c3      2c3       b1     1         build/flex/obj/sdk/lib_blewbxx/src/ble_cmd.o:(.debug_abbrev)
     374      374       af     1         build/flex/obj/sdk/lib_blewbxx/src/ble_ledger.o:(.debug_abbrev)
     423      423       62     1         build/flex/obj/sdk/lib_blewbxx/src/ble_ledger_profile_apdu.o:(.debug_abbrev)
     485      485       71     1         build/flex/obj/sdk/lib_nbgl/src/nbgl_layout.o:(.debug_abbrev)
     4f6      4f6       51     1         build/flex/obj/sdk/lib_nbgl/src/nbgl_layout_navigation.o:(.debug_abbrev)
     547      547       62     1         build/flex/obj/sdk/lib_nbgl/src/nbgl_page.o:(.debug_abbrev)
     5a9      5a9       7e     1         build/flex/obj/sdk/lib_nbgl/src/nbgl_use_case.o:(.debug_abbrev)
     627      627       1a     1         build/flex/obj/sdk/lib_standard_app/base58.o:(.debug_abbrev)
     641      641       1a     1         build/flex/obj/sdk/lib_standard_app/bip32.o:(.debug_abbrev)
     65b      65b       71     1         build/flex/obj/sdk/lib_standard_app/buffer.o:(.debug_abbrev)
     6cc      6cc       1a     1         build/flex/obj/sdk/lib_standard_app/crypto_helpers.o:(.debug_abbrev)
     6e6      6e6       42     1         build/flex/obj/sdk/lib_standard_app/format.o:(.debug_abbrev)
     728      728       42     1         build/flex/obj/sdk/lib_standard_app/io.o:(.debug_abbrev)
     76a      76a       1a     1         build/flex/obj/sdk/lib_standard_app/main.o:(.debug_abbrev)
     784      784       18     1         build/flex/obj/sdk/lib_standard_app/parser.o:(.debug_abbrev)
     79c      79c       1a     1         build/flex/obj/sdk/lib_standard_app/read.o:(.debug_abbrev)
     7b6      7b6       42     1         build/flex/obj/sdk/lib_standard_app/varint.o:(.debug_abbrev)
     7f8      7f8       1a     1         build/flex/obj/sdk/lib_standard_app/write.o:(.debug_abbrev)
     812      812       1a     1         build/flex/obj/sdk/lib_stusb/src/usbd_conf.o:(.debug_abbrev)
     82c      82c       1a     1         build/flex/obj/sdk/lib_stusb/src/usbd_core.o:(.debug_abbrev)
     846      846       71     1         build/flex/obj/sdk/lib_stusb/src/usbd_ctlreq.o:(.debug_abbrev)
     8b7      8b7       1a     1         build/flex/obj/sdk/lib_stusb/src/usbd_desc.o:(.debug_abbrev)
     8d1      8d1       1a     1         build/flex/obj/sdk/lib_stusb/src/usbd_ioreq.o:(.debug_abbrev)
     8eb      8eb       5e     1         build/flex/obj/sdk/lib_stusb/src/usbd_ledger.o:(.debug_abbrev)
     949      949       1a     1         build/flex/obj/sdk/lib_stusb/src/usbd_ledger_hid.o:(.debug_abbrev)
     963      963       5e     1         build/flex/obj/sdk/lib_stusb/src/usbd_ledger_hid_u2f.o:(.debug_abbrev)
     9c1      9c1       1a     1         build/flex/obj/sdk/lib_stusb/src/usbd_ledger_webusb.o:(.debug_abbrev)
     9db      9db       60     1         build/flex/obj/sdk/lib_u2f/src/u2f_transport.o:(.debug_abbrev)
     a3b      a3b       1a     1         build/flex/obj/sdk/lib_u2f_legacy/src/u2f_legacy.o:(.debug_abbrev)
     a55      a55       51     1         build/flex/obj/sdk/lib_ux_nbgl/ux.o:(.debug_abbrev)
     aa6      aa6       71     1         build/flex/obj/sdk/protocol/src/ledger_protocol.o:(.debug_abbrev)
     b17      b17       ad     1         build/flex/obj/sdk/qrcode/src/qrcodegen.o:(.debug_abbrev)
     bc4      bc4       1a     1         build/flex/obj/sdk/src/cx_hash_iovec.o:(.debug_abbrev)
     bde      bde       18     1         build/flex/obj/sdk/src/cx_wrappers.o:(.debug_abbrev)
     bf6      bf6       1a     1         build/flex/obj/sdk/src/ledger_assert.o:(.debug_abbrev)
     c10      c10       42     1         build/flex/obj/sdk/src/os.o:(.debug_abbrev)
     c52      c52       8d     1         build/flex/obj/sdk/src/os_printf.o:(.debug_abbrev)
     cdf      cdf       1a     1         build/flex/obj/sdk/src/pic.o:(.debug_abbrev)
     cf9      cf9       1a     1         build/flex/obj/sdk/src/syscalls.o:(.debug_abbrev)
       0        0    13bd5     1 .debug_line
       0        0       ec     1         build/flex/obj/app/src/apdu/dispatcher.o:(.debug_line)
      ec       ec       bf     1         build/flex/obj/app/src/app_main.o:(.debug_line)
     1ab      1ab      63d     1         build/flex/obj/app/src/handler/encrypt_decrypt.o:(.debug_line)
     7e8      7e8       82     1         build/flex/obj/app/src/handler/get_app_name.o:(.debug_line)
     86a      86a       85     1         build/flex/obj/app/src/handler/get_version.o:(.debug_line)
     8ef      8ef       72     1         build/flex/obj/app/src/ui/menu_nbgl.o:(.debug_line)
     961      961       ad     1         build/flex/obj/sdk/io/src/os_io.o:(.debug_line)
     a0e      a0e      1a0     1         build/flex/obj/sdk/io/src/os_io_default_apdu.o:(.debug_line)
     bae      bae      3c3     1         build/flex/obj/sdk/io/src/os_io_seph_cmd.o:(.debug_line)
     f71      f71      184     1         build/flex/obj/sdk/io/src/os_io_seph_ux.o:(.debug_line)
    10f5     10f5      411     1         build/flex/obj/sdk/io_legacy/src/os_io_legacy.o:(.debug_line)
    1506     1506      93c     1         build/flex/obj/sdk/lib_blewbxx/src/ble_cmd.o:(.debug_line)
    1e42     1e42     1617     1         build/flex/obj/sdk/lib_blewbxx/src/ble_ledger.o:(.debug_line)
    3459     3459      830     1         build/flex/obj/sdk/lib_blewbxx/src/ble_ledger_profile_apdu.o:(.debug_line)
    3c89     3c89     36bf     1         build/flex/obj/sdk/lib_nbgl/src/nbgl_layout.o:(.debug_line)
    7348     7348      311     1         build/flex/obj/sdk/lib_nbgl/src/nbgl_layout_navigation.o:(.debug_line)
    7659     7659      749     1         build/flex/obj/sdk/lib_nbgl/src/nbgl_page.o:(.debug_line)
    7da2     7da2     3228     1         build/flex/obj/sdk/lib_nbgl/src/nbgl_use_case.o:(.debug_line)
    afca     afca      252     1         build/flex/obj/sdk/lib_standard_app/base58.o:(.debug_line)
    b21c     b21c      17c     1         build/flex/obj/sdk/lib_standard_app/bip32.o:(.debug_line)
    b398     b398      6f9     1         build/flex/obj/sdk/lib_standard_app/buffer.o:(.debug_line)
    ba91     ba91      1f1     1         build/flex/obj/sdk/lib_standard_app/crypto_helpers.o:(.debug_line)
    bc82     bc82      2e9     1         build/flex/obj/sdk/lib_standard_app/format.o:(.debug_line)
    bf6b     bf6b      1b5     1         build/flex/obj/sdk/lib_standard_app/io.o:(.debug_line)
    c120     c120       cd     1         build/flex/obj/sdk/lib_standard_app/main.o:(.debug_line)
    c1ed     c1ed       a6     1         build/flex/obj/sdk/lib_standard_app/parser.o:(.debug_line)
    c293     c293      155     1         build/flex/obj/sdk/lib_standard_app/read.o:(.debug_line)
    c3e8     c3e8      14b     1         build/flex/obj/sdk/lib_standard_app/varint.o:(.debug_line)
    c533     c533      172     1         build/flex/obj/sdk/lib_standard_app/write.o:(.debug_line)
    c6a5     c6a5      2f0     1         build/flex/obj/sdk/lib_stusb/src/usbd_conf.o:(.debug_line)
    c995     c995      527     1         build/flex/obj/sdk/lib_stusb/src/usbd_core.o:(.debug_line)
    cebc     cebc      5a1     1         build/flex/obj/sdk/lib_stusb/src/usbd_ctlreq.o:(.debug_line)
    d45d     d45d      192     1         build/flex/obj/sdk/lib_stusb/src/usbd_desc.o:(.debug_line)
    d5ef     d5ef      115     1         build/flex/obj/sdk/lib_stusb/src/usbd_ioreq.o:(.debug_line)
    d704     d704      bb4     1         build/flex/obj/sdk/lib_stusb/src/usbd_ledger.o:(.debug_line)
    e2b8     e2b8      3cb     1         build/flex/obj/sdk/lib_stusb/src/usbd_ledger_hid.o:(.debug_line)
    e683     e683      758     1         build/flex/obj/sdk/lib_stusb/src/usbd_ledger_hid_u2f.o:(.debug_line)
    eddb     eddb      2e3     1         build/flex/obj/sdk/lib_stusb/src/usbd_ledger_webusb.o:(.debug_line)
    f0be     f0be      356     1         build/flex/obj/sdk/lib_u2f/src/u2f_transport.o:(.debug_line)
    f414     f414       96     1         build/flex/obj/sdk/lib_u2f_legacy/src/u2f_legacy.o:(.debug_line)
    f4aa     f4aa      184     1         build/flex/obj/sdk/lib_ux_nbgl/ux.o:(.debug_line)
    f62e     f62e      38d     1         build/flex/obj/sdk/protocol/src/ledger_protocol.o:(.debug_line)
    f9bb     f9bb     1be1     1         build/flex/obj/sdk/qrcode/src/qrcodegen.o:(.debug_line)
   1159c    1159c      2a1     1         build/flex/obj/sdk/src/cx_hash_iovec.o:(.debug_line)
   1183d    1183d       a7     1         build/flex/obj/sdk/src/cx_wrappers.o:(.debug_line)
   118e4    118e4      128     1         build/flex/obj/sdk/src/ledger_assert.o:(.debug_line)
   11a0c    11a0c      429     1         build/flex/obj/sdk/src/os.o:(.debug_line)
   11e35    11e35      a48     1         build/flex/obj/sdk/src/os_printf.o:(.debug_line)
   1287d    1287d       9e     1         build/flex/obj/sdk/src/pic.o:(.debug_line)
   1291b    1291b     12ba     1         build/flex/obj/sdk/src/syscalls.o:(.debug_line)
       0        0     4b48     4 .debug_frame
       0        0       34     4         build/flex/obj/app/src/apdu/dispatcher.o:(.debug_frame)
      34       34       3c     4         build/flex/obj/app/src/app_main.o:(.debug_frame)
      70       70       b0     4         build/flex/obj/app/src/handler/encrypt_decrypt.o:(.debug_frame)
     120      120       30     4         build/flex/obj/app/src/handler/get_app_name.o:(.debug_frame)
     150      150       30     4         build/flex/obj/app/src/handler/get_version.o:(.debug_frame)
     180      180       40     4         build/flex/obj/app/src/ui/menu_nbgl.o:(.debug_frame)
     1c0      1c0       34     4         build/flex/obj/sdk/io/src/os_io.o:(.debug_frame)
     1f4      1f4       5c     4         build/flex/obj/sdk/io/src/os_io_default_apdu.o:(.debug_frame)
     250      250      288     4         build/flex/obj/sdk/io/src/os_io_seph_cmd.o:(.debug_frame)
     4d8      4d8       6c     4         build/flex/obj/sdk/io/src/os_io_seph_ux.o:(.debug_frame)
     544      544      17c     4         build/flex/obj/sdk/io_legacy/src/os_io_legacy.o:(.debug_frame)
     6c0      6c0      1e4     4         build/flex/obj/sdk/lib_blewbxx/src/ble_cmd.o:(.debug_frame)
     8a4      8a4      2c4     4         build/flex/obj/sdk/lib_blewbxx/src/ble_ledger.o:(.debug_frame)
     b68      b68      1f0     4         build/flex/obj/sdk/lib_blewbxx/src/ble_ledger_profile_apdu.o:(.debug_frame)
     d58      d58      544     4         build/flex/obj/sdk/lib_nbgl/src/nbgl_layout.o:(.debug_frame)
    129c     129c       58     4         build/flex/obj/sdk/lib_nbgl/src/nbgl_layout_navigation.o:(.debug_frame)
    12f4     12f4       e8     4         build/flex/obj/sdk/lib_nbgl/src/nbgl_page.o:(.debug_frame)
    13dc     13dc      920     4         build/flex/obj/sdk/lib_nbgl/src/nbgl_use_case.o:(.debug_frame)
    1cfc     1cfc       64     4         build/flex/obj/sdk/lib_standard_app/base58.o:(.debug_frame)
    1d60     1d60       78     4         build/flex/obj/sdk/lib_standard_app/bip32.o:(.debug_frame)
    1dd8     1dd8      208     4         build/flex/obj/sdk/lib_standard_app/buffer.o:(.debug_frame)
    1fe0     1fe0       f4     4         build/flex/obj/sdk/lib_standard_app/crypto_helpers.o:(.debug_frame)
    20d4     20d4       c0     4         build/flex/obj/sdk/lib_standard_app/format.o:(.debug_frame)
    2194     2194       a4     4         build/flex/obj/sdk/lib_standard_app/io.o:(.debug_frame)
    2238     2238       70     4         build/flex/obj/sdk/lib_standard_app/main.o:(.debug_frame)
    22a8     22a8       24     4         build/flex/obj/sdk/lib_standard_app/parser.o:(.debug_frame)
    22cc     22cc       84     4         build/flex/obj/sdk/lib_standard_app/read.o:(.debug_frame)
    2350     2350       58     4         build/flex/obj/sdk/lib_standard_app/varint.o:(.debug_frame)
    23a8     23a8       84     4         build/flex/obj/sdk/lib_standard_app/write.o:(.debug_frame)
    242c     242c      168     4         build/flex/obj/sdk/lib_stusb/src/usbd_conf.o:(.debug_frame)
    2594     2594      1f0     4         build/flex/obj/sdk/lib_stusb/src/usbd_core.o:(.debug_frame)
    2784     2784       ac     4         build/flex/obj/sdk/lib_stusb/src/usbd_ctlreq.o:(.debug_frame)
    2830     2830       b8     4         build/flex/obj/sdk/lib_stusb/src/usbd_desc.o:(.debug_frame)
    28e8     28e8       c8     4         build/flex/obj/sdk/lib_stusb/src/usbd_ioreq.o:(.debug_frame)
    29b0     29b0      308     4         build/flex/obj/sdk/lib_stusb/src/usbd_ledger.o:(.debug_frame)
    2cb8     2cb8      104     4         build/flex/obj/sdk/lib_stusb/src/usbd_ledger_hid.o:(.debug_frame)
    2dbc     2dbc      124     4         build/flex/obj/sdk/lib_stusb/src/usbd_ledger_hid_u2f.o:(.debug_frame)
    2ee0     2ee0      100     4         build/flex/obj/sdk/lib_stusb/src/usbd_ledger_webusb.o:(.debug_frame)
    2fe0     2fe0       68     4         build/flex/obj/sdk/lib_u2f/src/u2f_transport.o:(.debug_frame)
    3048     3048       64     4         build/flex/obj/sdk/lib_u2f_legacy/src/u2f_legacy.o:(.debug_frame)
    30ac     30ac       68     4         build/flex/obj/sdk/lib_ux_nbgl/ux.o:(.debug_frame)
    3114     3114       64     4         build/flex/obj/sdk/protocol/src/ledger_protocol.o:(.debug_frame)
    3178     3178      21c     4         build/flex/obj/sdk/qrcode/src/qrcodegen.o:(.debug_frame)
    3394     3394      238     4         build/flex/obj/sdk/src/cx_hash_iovec.o:(.debug_frame)
    35cc     35cc       3c     4         build/flex/obj/sdk/src/cx_wrappers.o:(.debug_frame)
    3608     3608       e0     4         build/flex/obj/sdk/src/ledger_assert.o:(.debug_frame)
    36e8     36e8      1a4     4         build/flex/obj/sdk/src/os.o:(.debug_frame)
    388c     388c       c4     4         build/flex/obj/sdk/src/os_printf.o:(.debug_frame)
    3950     3950       3c     4         build/flex/obj/sdk/src/pic.o:(.debug_frame)
    398c     398c     11bc     4         build/flex/obj/sdk/src/syscalls.o:(.debug_frame)
       0        0     2394     1 .debug_str
       0        0     2394     1         <internal>:(.debug_str)
       0        0        4     1 ledger.target
       0        0        4     1         build/flex/obj/sdk/src/app_metadata.o:(ledger.target)
       0        0        4     1                 target
       0        0        b     1 ledger.target_name
       0        0        b     1         build/flex/obj/sdk/src/app_metadata.o:(ledger.target_name)
       0        0        b     1                 target_name
       0        0        a     1 ledger.target_id
       0        0        a     1         build/flex/obj/sdk/src/app_metadata.o:(ledger.target_id)
       0        0        a     1                 target_id
       0        0        7     1 ledger.app_name
       0        0        7     1         build/flex/obj/sdk/src/app_metadata.o:(ledger.app_name)
       0        0        7     1                 app_name
       0        0        5     1 ledger.app_version
       0        0        5     1         build/flex/obj/sdk/src/app_metadata.o:(ledger.app_version)
       0        0        5     1                 app_version
       0        0        2     1 ledger.api_level
       0        0        2     1         build/flex/obj/sdk/src/app_metadata.o:(ledger.api_level)
       0        0        2     1                 api_level
       0        0       11     1 ledger.sdk_name
       0        0       11     1         build/flex/obj/sdk/src/app_metadata.o:(ledger.sdk_name)
       0        0       11     1                 sdk_name
       0        0        7     1 ledger.sdk_version
       0        0        7     1         build/flex/obj/sdk/src/app_metadata.o:(ledger.sdk_version)
       0        0        7     1                 sdk_version
       0        0       28     1 ledger.sdk_hash
       0        0       28     1         build/flex/obj/sdk/src/app_metadata.o:(ledger.sdk_hash)
       0        0       28     1                 sdk_hash
       0        0        4     1 ledger.sdk_graphics
       0        0        4     1         build/flex/obj/sdk/src/app_metadata.o:(ledger.sdk_graphics)
       0        0        4     1                 sdk_graphics
       0        0        5     1 ledger.app_flags
       0        0        5     1         build/flex/obj/sdk/src/app_metadata.o:(ledger.app_flags)
       0        0        5     1                 app_flags
d0000010 d0000010        0     1 PROVIDE ( _nvram = ABSOLUTE ( _nvram_start ) )
d0000010 d0000010        0     1 PROVIDE ( _envram = ABSOLUTE ( _nvram_end ) )
       0        0       45     1 .ARM.attributes
       0        0       45     1         build/flex/gen_src/glyphs.o:(.ARM.attributes)
       0        0      90c     1 .debug_str_offsets
       0        0       1c     1         build/flex/obj/app/src/apdu/dispatcher.o:(.debug_str_offsets)
      1c       1c       1c     1         build/flex/obj/app/src/app_main.o:(.debug_str_offsets)
      38       38       4c     1         build/flex/obj/app/src/handler/encrypt_decrypt.o:(.debug_str_offsets)
      84       84       1c     1         build/flex/obj/app/src/handler/get_app_name.o:(.debug_str_offsets)
      a0       a0       1c     1         build/flex/obj/app/src/handler/get_version.o:(.debug_str_offsets)
      bc       bc       14     1         build/flex/obj/app/src/ui/menu_nbgl.o:(.debug_str_offsets)
      d0       d0       14     1         build/flex/obj/sdk/io/src/os_io.o:(.debug_str_offsets)
      e4       e4       1c     1         build/flex/obj/sdk/io/src/os_io_default_apdu.o:(.debug_str_offsets)
     100      100       1c     1         build/flex/obj/sdk/io/src/os_io_seph_cmd.o:(.debug_str_offsets)
     11c      11c       1c     1         build/flex/obj/sdk/io/src/os_io_seph_ux.o:(.debug_str_offsets)
     138      138       24     1         build/flex/obj/sdk/io_legacy/src/os_io_legacy.o:(.debug_str_offsets)
     15c      15c       7c     1         build/flex/obj/sdk/lib_blewbxx/src/ble_cmd.o:(.debug_str_offsets)
     1d8      1d8       70     1         build/flex/obj/sdk/lib_blewbxx/src/ble_ledger.o:(.debug_str_offsets)
     248      248       40     1         build/flex/obj/sdk/lib_blewbxx/src/ble_ledger_profile_apdu.o:(.debug_str_offsets)
     288      288       80     1         build/flex/obj/sdk/lib_nbgl/src/nbgl_layout.o:(.debug_str_offsets)
     308      308       20     1         build/flex/obj/sdk/lib_nbgl/src/nbgl_layout_navigation.o:(.debug_str_offsets)
     328      328       28     1         build/flex/obj/sdk/lib_nbgl/src/nbgl_page.o:(.debug_str_offsets)
     350      350      130     1         build/flex/obj/sdk/lib_nbgl/src/nbgl_use_case.o:(.debug_str_offsets)
     480      480       14     1         build/flex/obj/sdk/lib_standard_app/base58.o:(.debug_str_offsets)
     494      494       14     1         build/flex/obj/sdk/lib_standard_app/bip32.o:(.debug_str_offsets)
     4a8      4a8       60     1         build/flex/obj/sdk/lib_standard_app/buffer.o:(.debug_str_offsets)
     508      508       14     1         build/flex/obj/sdk/lib_standard_app/crypto_helpers.o:(.debug_str_offsets)
     51c      51c       1c     1         build/flex/obj/sdk/lib_standard_app/format.o:(.debug_str_offsets)
     538      538       1c     1         build/flex/obj/sdk/lib_standard_app/io.o:(.debug_str_offsets)
     554      554       14     1         build/flex/obj/sdk/lib_standard_app/main.o:(.debug_str_offsets)
     568      568       14     1         build/flex/obj/sdk/lib_standard_app/parser.o:(.debug_str_offsets)
     57c      57c       14     1         build/flex/obj/sdk/lib_standard_app/read.o:(.debug_str_offsets)
     590      590       1c     1         build/flex/obj/sdk/lib_standard_app/varint.o:(.debug_str_offsets)
     5ac      5ac       14     1         build/flex/obj/sdk/lib_standard_app/write.o:(.debug_str_offsets)
     5c0      5c0       14     1         build/flex/obj/sdk/lib_stusb/src/usbd_conf.o:(.debug_str_offsets)
     5d4      5d4       14     1         build/flex/obj/sdk/lib_stusb/src/usbd_core.o:(.debug_str_offsets)
     5e8      5e8       48     1         build/flex/obj/sdk/lib_stusb/src/usbd_ctlreq.o:(.debug_str_offsets)
     630      630       14     1         build/flex/obj/sdk/lib_stusb/src/usbd_desc.o:(.debug_str_offsets)
     644      644       14     1         build/flex/obj/sdk/lib_stusb/src/usbd_ioreq.o:(.debug_str_offsets)
     658      658       68     1         build/flex/obj/sdk/lib_stusb/src/usbd_ledger.o:(.debug_str_offsets)
     6c0      6c0       14     1         build/flex/obj/sdk/lib_stusb/src/usbd_ledger_hid.o:(.debug_str_offsets)
     6d4      6d4       2c     1         build/flex/obj/sdk/lib_stusb/src/usbd_ledger_hid_u2f.o:(.debug_str_offsets)
     700      700       14     1         build/flex/obj/sdk/lib_stusb/src/usbd_ledger_webusb.o:(.debug_str_offsets)
     714      714       30     1         build/flex/obj/sdk/lib_u2f/src/u2f_transport.o:(.debug_str_offsets)
     744      744       14     1         build/flex/obj/sdk/lib_u2f_legacy/src/u2f_legacy.o:(.debug_str_offsets)
     758      758       24     1         build/flex/obj/sdk/lib_ux_nbgl/ux.o:(.debug_str_offsets)
     77c      77c       28     1         build/flex/obj/sdk/protocol/src/ledger_protocol.o:(.debug_str_offsets)
     7a4      7a4       a8     1         build/flex/obj/sdk/qrcode/src/qrcodegen.o:(.debug_str_offsets)
     84c      84c       14     1         build/flex/obj/sdk/src/cx_hash_iovec.o:(.debug_str_offsets)
     860      860       14     1         build/flex/obj/sdk/src/cx_wrappers.o:(.debug_str_offsets)
     874      874       14     1         build/flex/obj/sdk/src/ledger_assert.o:(.debug_str_offsets)
     888      888       2c     1         build/flex/obj/sdk/src/os.o:(.debug_str_offsets)
     8b4      8b4       30     1         build/flex/obj/sdk/src/os_printf.o:(.debug_str_offsets)
     8e4      8e4       14     1         build/flex/obj/sdk/src/pic.o:(.debug_str_offsets)
     8f8      8f8       14     1         build/flex/obj/sdk/src/syscalls.o:(.debug_str_offsets)
       0        0     10e4     1 .debug_addr
       0        0       14     1         build/flex/obj/app/src/apdu/dispatcher.o:(.debug_addr)
      14       14       10     1         build/flex/obj/app/src/app_main.o:(.debug_addr)
      24       24       54     1         build/flex/obj/app/src/handler/encrypt_decrypt.o:(.debug_addr)
      78       78       10     1         build/flex/obj/app/src/handler/get_app_name.o:(.debug_addr)
      88       88       10     1         build/flex/obj/app/src/handler/get_version.o:(.debug_addr)
      98       98       10     1         build/flex/obj/app/src/ui/menu_nbgl.o:(.debug_addr)
      a8       a8        c     1         build/flex/obj/sdk/io/src/os_io.o:(.debug_addr)
      b4       b4       14     1         build/flex/obj/sdk/io/src/os_io_default_apdu.o:(.debug_addr)
      c8       c8       64     1         build/flex/obj/sdk/io/src/os_io_seph_cmd.o:(.debug_addr)
     12c      12c       18     1         build/flex/obj/sdk/io/src/os_io_seph_ux.o:(.debug_addr)
     144      144       44     1         build/flex/obj/sdk/io_legacy/src/os_io_legacy.o:(.debug_addr)
     188      188      108     1         build/flex/obj/sdk/lib_blewbxx/src/ble_cmd.o:(.debug_addr)
     290      290      11c     1         build/flex/obj/sdk/lib_blewbxx/src/ble_ledger.o:(.debug_addr)
     3ac      3ac       80     1         build/flex/obj/sdk/lib_blewbxx/src/ble_ledger_profile_apdu.o:(.debug_addr)
     42c      42c       c8     1         build/flex/obj/sdk/lib_nbgl/src/nbgl_layout.o:(.debug_addr)
     4f4      4f4       1c     1         build/flex/obj/sdk/lib_nbgl/src/nbgl_layout_navigation.o:(.debug_addr)
     510      510       40     1         build/flex/obj/sdk/lib_nbgl/src/nbgl_page.o:(.debug_addr)
     550      550      210     1         build/flex/obj/sdk/lib_nbgl/src/nbgl_use_case.o:(.debug_addr)
     760      760       10     1         build/flex/obj/sdk/lib_standard_app/base58.o:(.debug_addr)
     770      770       14     1         build/flex/obj/sdk/lib_standard_app/bip32.o:(.debug_addr)
     784      784       90     1         build/flex/obj/sdk/lib_standard_app/buffer.o:(.debug_addr)
     814      814       20     1         build/flex/obj/sdk/lib_standard_app/crypto_helpers.o:(.debug_addr)
     834      834       20     1         build/flex/obj/sdk/lib_standard_app/format.o:(.debug_addr)
     854      854       24     1         build/flex/obj/sdk/lib_standard_app/io.o:(.debug_addr)
     878      878       18     1         build/flex/obj/sdk/lib_standard_app/main.o:(.debug_addr)
     890      890        c     1         build/flex/obj/sdk/lib_standard_app/parser.o:(.debug_addr)
     89c      89c       20     1         build/flex/obj/sdk/lib_standard_app/read.o:(.debug_addr)
     8bc      8bc       18     1         build/flex/obj/sdk/lib_standard_app/varint.o:(.debug_addr)
     8d4      8d4       20     1         build/flex/obj/sdk/lib_standard_app/write.o:(.debug_addr)
     8f4      8f4       40     1         build/flex/obj/sdk/lib_stusb/src/usbd_conf.o:(.debug_addr)
     934      934       58     1         build/flex/obj/sdk/lib_stusb/src/usbd_core.o:(.debug_addr)
     98c      98c       50     1         build/flex/obj/sdk/lib_stusb/src/usbd_ctlreq.o:(.debug_addr)
     9dc      9dc       24     1         build/flex/obj/sdk/lib_stusb/src/usbd_desc.o:(.debug_addr)
     a00      a00       24     1         build/flex/obj/sdk/lib_stusb/src/usbd_ioreq.o:(.debug_addr)
     a24      a24       b4     1         build/flex/obj/sdk/lib_stusb/src/usbd_ledger.o:(.debug_addr)
     ad8      ad8       2c     1         build/flex/obj/sdk/lib_stusb/src/usbd_ledger_hid.o:(.debug_addr)
     b04      b04       40     1         build/flex/obj/sdk/lib_stusb/src/usbd_ledger_hid_u2f.o:(.debug_addr)
     b44      b44       2c     1         build/flex/obj/sdk/lib_stusb/src/usbd_ledger_webusb.o:(.debug_addr)
     b70      b70       20     1         build/flex/obj/sdk/lib_u2f/src/u2f_transport.o:(.debug_addr)
     b90      b90       14     1         build/flex/obj/sdk/lib_u2f_legacy/src/u2f_legacy.o:(.debug_addr)
     ba4      ba4       1c     1         build/flex/obj/sdk/lib_ux_nbgl/ux.o:(.debug_addr)
     bc0      bc0       20     1         build/flex/obj/sdk/protocol/src/ledger_protocol.o:(.debug_addr)
     be0      be0      124     1         build/flex/obj/sdk/qrcode/src/qrcodegen.o:(.debug_addr)
     d04      d04       54     1         build/flex/obj/sdk/src/cx_hash_iovec.o:(.debug_addr)
     d58      d58        c     1         build/flex/obj/sdk/src/cx_wrappers.o:(.debug_addr)
     d64      d64       28     1         build/flex/obj/sdk/src/ledger_assert.o:(.debug_addr)
     d8c      d8c       60     1         build/flex/obj/sdk/src/os.o:(.debug_addr)
     dec      dec       5c     1         build/flex/obj/sdk/src/os_printf.o:(.debug_addr)
     e48      e48       10     1         build/flex/obj/sdk/src/pic.o:(.debug_addr)
     e58      e58      28c     1         build/flex/obj/sdk/src/syscalls.o:(.debug_addr)
       0        0      963     1 .debug_line_str
       0        0      963     1         <internal>:(.debug_line_str)
       0        0     1d90     1 .debug_rnglists
       0        0       e8     1         build/flex/obj/app/src/handler/encrypt_decrypt.o:(.debug_rnglists)
      e8       e8       17     1         build/flex/obj/app/src/ui/menu_nbgl.o:(.debug_rnglists)
      ff       ff       18     1         build/flex/obj/sdk/io/src/os_io_default_apdu.o:(.debug_rnglists)
     117      117       63     1         build/flex/obj/sdk/io/src/os_io_seph_cmd.o:(.debug_rnglists)
     17a      17a       2b     1         build/flex/obj/sdk/io/src/os_io_seph_ux.o:(.debug_rnglists)
     1a5      1a5       5f     1         build/flex/obj/sdk/io_legacy/src/os_io_legacy.o:(.debug_rnglists)
     204      204      194     1         build/flex/obj/sdk/lib_blewbxx/src/ble_cmd.o:(.debug_rnglists)
     398      398      212     1         build/flex/obj/sdk/lib_blewbxx/src/ble_ledger.o:(.debug_rnglists)
     5aa      5aa       66     1         build/flex/obj/sdk/lib_blewbxx/src/ble_ledger_profile_apdu.o:(.debug_rnglists)
     610      610      480     1         build/flex/obj/sdk/lib_nbgl/src/nbgl_layout.o:(.debug_rnglists)
     a90      a90       40     1         build/flex/obj/sdk/lib_nbgl/src/nbgl_layout_navigation.o:(.debug_rnglists)
     ad0      ad0       3b     1         build/flex/obj/sdk/lib_nbgl/src/nbgl_page.o:(.debug_rnglists)
     b0b      b0b      3e3     1         build/flex/obj/sdk/lib_nbgl/src/nbgl_use_case.o:(.debug_rnglists)
     eee      eee       19     1         build/flex/obj/sdk/lib_standard_app/base58.o:(.debug_rnglists)
     f07      f07       1b     1         build/flex/obj/sdk/lib_standard_app/bip32.o:(.debug_rnglists)
     f22      f22       f9     1         build/flex/obj/sdk/lib_standard_app/buffer.o:(.debug_rnglists)
    101b     101b       27     1         build/flex/obj/sdk/lib_standard_app/crypto_helpers.o:(.debug_rnglists)
    1042     1042       22     1         build/flex/obj/sdk/lib_standard_app/format.o:(.debug_rnglists)
    1064     1064       24     1         build/flex/obj/sdk/lib_standard_app/io.o:(.debug_rnglists)
    1088     1088       1d     1         build/flex/obj/sdk/lib_standard_app/main.o:(.debug_rnglists)
    10a5     10a5       23     1         build/flex/obj/sdk/lib_standard_app/read.o:(.debug_rnglists)
    10c8     10c8       1a     1         build/flex/obj/sdk/lib_standard_app/varint.o:(.debug_rnglists)
    10e2     10e2       23     1         build/flex/obj/sdk/lib_standard_app/write.o:(.debug_rnglists)
    1105     1105       3c     1         build/flex/obj/sdk/lib_stusb/src/usbd_conf.o:(.debug_rnglists)
    1141     1141       4e     1         build/flex/obj/sdk/lib_stusb/src/usbd_core.o:(.debug_rnglists)
    118f     118f       7a     1         build/flex/obj/sdk/lib_stusb/src/usbd_ctlreq.o:(.debug_rnglists)
    1209     1209       27     1         build/flex/obj/sdk/lib_stusb/src/usbd_desc.o:(.debug_rnglists)
    1230     1230       26     1         build/flex/obj/sdk/lib_stusb/src/usbd_ioreq.o:(.debug_rnglists)
    1256     1256       d2     1         build/flex/obj/sdk/lib_stusb/src/usbd_ledger.o:(.debug_rnglists)
    1328     1328       2e     1         build/flex/obj/sdk/lib_stusb/src/usbd_ledger_hid.o:(.debug_rnglists)
    1356     1356       78     1         build/flex/obj/sdk/lib_stusb/src/usbd_ledger_hid_u2f.o:(.debug_rnglists)
    13ce     13ce       2e     1         build/flex/obj/sdk/lib_stusb/src/usbd_ledger_webusb.o:(.debug_rnglists)
    13fc     13fc       3d     1         build/flex/obj/sdk/lib_u2f/src/u2f_transport.o:(.debug_rnglists)
    1439     1439       1a     1         build/flex/obj/sdk/lib_u2f_legacy/src/u2f_legacy.o:(.debug_rnglists)
    1453     1453       29     1         build/flex/obj/sdk/lib_ux_nbgl/ux.o:(.debug_rnglists)
    147c     147c       5f     1         build/flex/obj/sdk/protocol/src/ledger_protocol.o:(.debug_rnglists)
    14db     14db      533     1         build/flex/obj/sdk/qrcode/src/qrcodegen.o:(.debug_rnglists)
    1a0e     1a0e       4c     1         build/flex/obj/sdk/src/cx_hash_iovec.o:(.debug_rnglists)
    1a5a     1a5a       29     1         build/flex/obj/sdk/src/ledger_assert.o:(.debug_rnglists)
    1a83     1a83       4a     1         build/flex/obj/sdk/src/os.o:(.debug_rnglists)
    1acd     1acd       97     1         build/flex/obj/sdk/src/os_printf.o:(.debug_rnglists)
    1b64     1b64       17     1         build/flex/obj/sdk/src/pic.o:(.debug_rnglists)
    1b7b     1b7b      215     1         build/flex/obj/sdk/src/syscalls.o:(.debug_rnglists)
       0        0     2370     4 .symtab
       0        0     2370     4         <internal>:(.symtab)
       0        0      186     1 .shstrtab
       0        0      186     1         <internal>:(.shstrtab)
       0        0     1d6d     1 .strtab
       0        0     1d6d     1         <internal>:(.strtab)
